
sand.out:     file format elf64-x86-64


Disassembly of section .init:

0000000000002000 <_init>:
    2000:	f3 0f 1e fa          	endbr64 
    2004:	48 83 ec 08          	sub    $0x8,%rsp
    2008:	48 8b 05 d9 7f 00 00 	mov    0x7fd9(%rip),%rax        # 9fe8 <__gmon_start__>
    200f:	48 85 c0             	test   %rax,%rax
    2012:	74 02                	je     2016 <_init+0x16>
    2014:	ff d0                	callq  *%rax
    2016:	48 83 c4 08          	add    $0x8,%rsp
    201a:	c3                   	retq   

Disassembly of section .plt:

0000000000002020 <.plt>:
    2020:	ff 35 e2 7f 00 00    	pushq  0x7fe2(%rip)        # a008 <_GLOBAL_OFFSET_TABLE_+0x8>
    2026:	ff 25 e4 7f 00 00    	jmpq   *0x7fe4(%rip)        # a010 <_GLOBAL_OFFSET_TABLE_+0x10>
    202c:	0f 1f 40 00          	nopl   0x0(%rax)

0000000000002030 <rand@plt>:
    2030:	ff 25 e2 7f 00 00    	jmpq   *0x7fe2(%rip)        # a018 <rand@GLIBC_2.2.5>
    2036:	68 00 00 00 00       	pushq  $0x0
    203b:	e9 e0 ff ff ff       	jmpq   2020 <.plt>

0000000000002040 <_ZSt17__throw_bad_allocv@plt>:
    2040:	ff 25 da 7f 00 00    	jmpq   *0x7fda(%rip)        # a020 <_ZSt17__throw_bad_allocv@GLIBCXX_3.4>
    2046:	68 01 00 00 00       	pushq  $0x1
    204b:	e9 d0 ff ff ff       	jmpq   2020 <.plt>

0000000000002050 <__cxa_begin_catch@plt>:
    2050:	ff 25 d2 7f 00 00    	jmpq   *0x7fd2(%rip)        # a028 <__cxa_begin_catch@CXXABI_1.3>
    2056:	68 02 00 00 00       	pushq  $0x2
    205b:	e9 c0 ff ff ff       	jmpq   2020 <.plt>

0000000000002060 <_ZNKSt7__cxx1112basic_stringIcSt11char_traitsIcESaIcEE5c_strEv@plt>:
    2060:	ff 25 ca 7f 00 00    	jmpq   *0x7fca(%rip)        # a030 <_ZNKSt7__cxx1112basic_stringIcSt11char_traitsIcESaIcEE5c_strEv@GLIBCXX_3.4.21>
    2066:	68 03 00 00 00       	pushq  $0x3
    206b:	e9 b0 ff ff ff       	jmpq   2020 <.plt>

0000000000002070 <_ZNSt7__cxx1112basic_stringIcSt11char_traitsIcESaIcEEC1ERKS4_@plt>:
    2070:	ff 25 c2 7f 00 00    	jmpq   *0x7fc2(%rip)        # a038 <_ZNSt7__cxx1112basic_stringIcSt11char_traitsIcESaIcEEC1ERKS4_@GLIBCXX_3.4.21>
    2076:	68 04 00 00 00       	pushq  $0x4
    207b:	e9 a0 ff ff ff       	jmpq   2020 <.plt>

0000000000002080 <memcmp@plt>:
    2080:	ff 25 ba 7f 00 00    	jmpq   *0x7fba(%rip)        # a040 <memcmp@GLIBC_2.2.5>
    2086:	68 05 00 00 00       	pushq  $0x5
    208b:	e9 90 ff ff ff       	jmpq   2020 <.plt>

0000000000002090 <_ZSt20__throw_length_errorPKc@plt>:
    2090:	ff 25 b2 7f 00 00    	jmpq   *0x7fb2(%rip)        # a048 <_ZSt20__throw_length_errorPKc@GLIBCXX_3.4>
    2096:	68 06 00 00 00       	pushq  $0x6
    209b:	e9 80 ff ff ff       	jmpq   2020 <.plt>

00000000000020a0 <_ZNSirsERi@plt>:
    20a0:	ff 25 aa 7f 00 00    	jmpq   *0x7faa(%rip)        # a050 <_ZNSirsERi@GLIBCXX_3.4>
    20a6:	68 07 00 00 00       	pushq  $0x7
    20ab:	e9 70 ff ff ff       	jmpq   2020 <.plt>

00000000000020b0 <_ZNSt7__cxx1112basic_stringIcSt11char_traitsIcESaIcEED1Ev@plt>:
    20b0:	ff 25 a2 7f 00 00    	jmpq   *0x7fa2(%rip)        # a058 <_ZNSt7__cxx1112basic_stringIcSt11char_traitsIcESaIcEED1Ev@GLIBCXX_3.4.21>
    20b6:	68 08 00 00 00       	pushq  $0x8
    20bb:	e9 60 ff ff ff       	jmpq   2020 <.plt>

00000000000020c0 <_ZNSt7__cxx1112basic_stringIcSt11char_traitsIcESaIcEEpLEc@plt>:
    20c0:	ff 25 9a 7f 00 00    	jmpq   *0x7f9a(%rip)        # a060 <_ZNSt7__cxx1112basic_stringIcSt11char_traitsIcESaIcEEpLEc@GLIBCXX_3.4.21>
    20c6:	68 09 00 00 00       	pushq  $0x9
    20cb:	e9 50 ff ff ff       	jmpq   2020 <.plt>

00000000000020d0 <_ZNKSt7__cxx1112basic_stringIcSt11char_traitsIcESaIcEE4sizeEv@plt>:
    20d0:	ff 25 92 7f 00 00    	jmpq   *0x7f92(%rip)        # a068 <_ZNKSt7__cxx1112basic_stringIcSt11char_traitsIcESaIcEE4sizeEv@GLIBCXX_3.4.21>
    20d6:	68 0a 00 00 00       	pushq  $0xa
    20db:	e9 40 ff ff ff       	jmpq   2020 <.plt>

00000000000020e0 <__cxa_atexit@plt>:
    20e0:	ff 25 8a 7f 00 00    	jmpq   *0x7f8a(%rip)        # a070 <__cxa_atexit@GLIBC_2.2.5>
    20e6:	68 0b 00 00 00       	pushq  $0xb
    20eb:	e9 30 ff ff ff       	jmpq   2020 <.plt>

00000000000020f0 <_ZStlsIcSt11char_traitsIcESaIcEERSt13basic_ostreamIT_T0_ES7_RKNSt7__cxx1112basic_stringIS4_S5_T1_EE@plt>:
    20f0:	ff 25 82 7f 00 00    	jmpq   *0x7f82(%rip)        # a078 <_ZStlsIcSt11char_traitsIcESaIcEERSt13basic_ostreamIT_T0_ES7_RKNSt7__cxx1112basic_stringIS4_S5_T1_EE@GLIBCXX_3.4.21>
    20f6:	68 0c 00 00 00       	pushq  $0xc
    20fb:	e9 20 ff ff ff       	jmpq   2020 <.plt>

0000000000002100 <_ZdlPv@plt>:
    2100:	ff 25 7a 7f 00 00    	jmpq   *0x7f7a(%rip)        # a080 <_ZdlPv@GLIBCXX_3.4>
    2106:	68 0d 00 00 00       	pushq  $0xd
    210b:	e9 10 ff ff ff       	jmpq   2020 <.plt>

0000000000002110 <_ZStlsISt11char_traitsIcEERSt13basic_ostreamIcT_ES5_PKc@plt>:
    2110:	ff 25 72 7f 00 00    	jmpq   *0x7f72(%rip)        # a088 <_ZStlsISt11char_traitsIcEERSt13basic_ostreamIcT_ES5_PKc@GLIBCXX_3.4>
    2116:	68 0e 00 00 00       	pushq  $0xe
    211b:	e9 00 ff ff ff       	jmpq   2020 <.plt>

0000000000002120 <fclose@plt>:
    2120:	ff 25 6a 7f 00 00    	jmpq   *0x7f6a(%rip)        # a090 <fclose@GLIBC_2.2.5>
    2126:	68 0f 00 00 00       	pushq  $0xf
    212b:	e9 f0 fe ff ff       	jmpq   2020 <.plt>

0000000000002130 <_Znwm@plt>:
    2130:	ff 25 62 7f 00 00    	jmpq   *0x7f62(%rip)        # a098 <_Znwm@GLIBCXX_3.4>
    2136:	68 10 00 00 00       	pushq  $0x10
    213b:	e9 e0 fe ff ff       	jmpq   2020 <.plt>

0000000000002140 <_ZdlPvm@plt>:
    2140:	ff 25 5a 7f 00 00    	jmpq   *0x7f5a(%rip)        # a0a0 <_ZdlPvm@CXXABI_1.3.9>
    2146:	68 11 00 00 00       	pushq  $0x11
    214b:	e9 d0 fe ff ff       	jmpq   2020 <.plt>

0000000000002150 <_ZNKSt7__cxx1112basic_stringIcSt11char_traitsIcESaIcEE6substrEmm@plt>:
    2150:	ff 25 52 7f 00 00    	jmpq   *0x7f52(%rip)        # a0a8 <_ZNKSt7__cxx1112basic_stringIcSt11char_traitsIcESaIcEE6substrEmm@GLIBCXX_3.4.21>
    2156:	68 12 00 00 00       	pushq  $0x12
    215b:	e9 c0 fe ff ff       	jmpq   2020 <.plt>

0000000000002160 <_ZNSaIcED1Ev@plt>:
    2160:	ff 25 4a 7f 00 00    	jmpq   *0x7f4a(%rip)        # a0b0 <_ZNSaIcED1Ev@GLIBCXX_3.4>
    2166:	68 13 00 00 00       	pushq  $0x13
    216b:	e9 b0 fe ff ff       	jmpq   2020 <.plt>

0000000000002170 <__stack_chk_fail@plt>:
    2170:	ff 25 42 7f 00 00    	jmpq   *0x7f42(%rip)        # a0b8 <__stack_chk_fail@GLIBC_2.4>
    2176:	68 14 00 00 00       	pushq  $0x14
    217b:	e9 a0 fe ff ff       	jmpq   2020 <.plt>

0000000000002180 <fopen@plt>:
    2180:	ff 25 3a 7f 00 00    	jmpq   *0x7f3a(%rip)        # a0c0 <fopen@GLIBC_2.2.5>
    2186:	68 15 00 00 00       	pushq  $0x15
    218b:	e9 90 fe ff ff       	jmpq   2020 <.plt>

0000000000002190 <_ZNKSt7__cxx1112basic_stringIcSt11char_traitsIcESaIcEE2atEm@plt>:
    2190:	ff 25 32 7f 00 00    	jmpq   *0x7f32(%rip)        # a0c8 <_ZNKSt7__cxx1112basic_stringIcSt11char_traitsIcESaIcEE2atEm@GLIBCXX_3.4.21>
    2196:	68 16 00 00 00       	pushq  $0x16
    219b:	e9 80 fe ff ff       	jmpq   2020 <.plt>

00000000000021a0 <_ZNKSt7__cxx1112basic_stringIcSt11char_traitsIcESaIcEE4dataEv@plt>:
    21a0:	ff 25 2a 7f 00 00    	jmpq   *0x7f2a(%rip)        # a0d0 <_ZNKSt7__cxx1112basic_stringIcSt11char_traitsIcESaIcEE4dataEv@GLIBCXX_3.4.21>
    21a6:	68 17 00 00 00       	pushq  $0x17
    21ab:	e9 70 fe ff ff       	jmpq   2020 <.plt>

00000000000021b0 <_ZNSt7__cxx1112basic_stringIcSt11char_traitsIcESaIcEEC1EPKcRKS3_@plt>:
    21b0:	ff 25 22 7f 00 00    	jmpq   *0x7f22(%rip)        # a0d8 <_ZNSt7__cxx1112basic_stringIcSt11char_traitsIcESaIcEEC1EPKcRKS3_@GLIBCXX_3.4.21>
    21b6:	68 18 00 00 00       	pushq  $0x18
    21bb:	e9 60 fe ff ff       	jmpq   2020 <.plt>

00000000000021c0 <fprintf@plt>:
    21c0:	ff 25 1a 7f 00 00    	jmpq   *0x7f1a(%rip)        # a0e0 <fprintf@GLIBC_2.2.5>
    21c6:	68 19 00 00 00       	pushq  $0x19
    21cb:	e9 50 fe ff ff       	jmpq   2020 <.plt>

00000000000021d0 <__cxa_rethrow@plt>:
    21d0:	ff 25 12 7f 00 00    	jmpq   *0x7f12(%rip)        # a0e8 <__cxa_rethrow@CXXABI_1.3>
    21d6:	68 1a 00 00 00       	pushq  $0x1a
    21db:	e9 40 fe ff ff       	jmpq   2020 <.plt>

00000000000021e0 <_ZNKSt7__cxx1112basic_stringIcSt11char_traitsIcESaIcEE6lengthEv@plt>:
    21e0:	ff 25 0a 7f 00 00    	jmpq   *0x7f0a(%rip)        # a0f0 <_ZNKSt7__cxx1112basic_stringIcSt11char_traitsIcESaIcEE6lengthEv@GLIBCXX_3.4.21>
    21e6:	68 1b 00 00 00       	pushq  $0x1b
    21eb:	e9 30 fe ff ff       	jmpq   2020 <.plt>

00000000000021f0 <_ZNSt8ios_base4InitC1Ev@plt>:
    21f0:	ff 25 02 7f 00 00    	jmpq   *0x7f02(%rip)        # a0f8 <_ZNSt8ios_base4InitC1Ev@GLIBCXX_3.4>
    21f6:	68 1c 00 00 00       	pushq  $0x1c
    21fb:	e9 20 fe ff ff       	jmpq   2020 <.plt>

0000000000002200 <memmove@plt>:
    2200:	ff 25 fa 7e 00 00    	jmpq   *0x7efa(%rip)        # a100 <memmove@GLIBC_2.2.5>
    2206:	68 1d 00 00 00       	pushq  $0x1d
    220b:	e9 10 fe ff ff       	jmpq   2020 <.plt>

0000000000002210 <__cxa_end_catch@plt>:
    2210:	ff 25 f2 7e 00 00    	jmpq   *0x7ef2(%rip)        # a108 <__cxa_end_catch@CXXABI_1.3>
    2216:	68 1e 00 00 00       	pushq  $0x1e
    221b:	e9 00 fe ff ff       	jmpq   2020 <.plt>

0000000000002220 <_ZNSolsEi@plt>:
    2220:	ff 25 ea 7e 00 00    	jmpq   *0x7eea(%rip)        # a110 <_ZNSolsEi@GLIBCXX_3.4>
    2226:	68 1f 00 00 00       	pushq  $0x1f
    222b:	e9 f0 fd ff ff       	jmpq   2020 <.plt>

0000000000002230 <_Unwind_Resume@plt>:
    2230:	ff 25 e2 7e 00 00    	jmpq   *0x7ee2(%rip)        # a118 <_Unwind_Resume@GCC_3.0>
    2236:	68 20 00 00 00       	pushq  $0x20
    223b:	e9 e0 fd ff ff       	jmpq   2020 <.plt>

0000000000002240 <_ZNSaIcEC1Ev@plt>:
    2240:	ff 25 da 7e 00 00    	jmpq   *0x7eda(%rip)        # a120 <_ZNSaIcEC1Ev@GLIBCXX_3.4>
    2246:	68 21 00 00 00       	pushq  $0x21
    224b:	e9 d0 fd ff ff       	jmpq   2020 <.plt>

0000000000002250 <_ZNSt7__cxx1112basic_stringIcSt11char_traitsIcESaIcEE6appendEPKc@plt>:
    2250:	ff 25 d2 7e 00 00    	jmpq   *0x7ed2(%rip)        # a128 <_ZNSt7__cxx1112basic_stringIcSt11char_traitsIcESaIcEE6appendEPKc@GLIBCXX_3.4.21>
    2256:	68 22 00 00 00       	pushq  $0x22
    225b:	e9 c0 fd ff ff       	jmpq   2020 <.plt>

0000000000002260 <_ZNSt7__cxx1112basic_stringIcSt11char_traitsIcESaIcEE2atEm@plt>:
    2260:	ff 25 ca 7e 00 00    	jmpq   *0x7eca(%rip)        # a130 <_ZNSt7__cxx1112basic_stringIcSt11char_traitsIcESaIcEE2atEm@GLIBCXX_3.4.21>
    2266:	68 23 00 00 00       	pushq  $0x23
    226b:	e9 b0 fd ff ff       	jmpq   2020 <.plt>

0000000000002270 <fwrite@plt>:
    2270:	ff 25 c2 7e 00 00    	jmpq   *0x7ec2(%rip)        # a138 <fwrite@GLIBC_2.2.5>
    2276:	68 24 00 00 00       	pushq  $0x24
    227b:	e9 a0 fd ff ff       	jmpq   2020 <.plt>

Disassembly of section .text:

0000000000002280 <_start>:
    2280:	f3 0f 1e fa          	endbr64 
    2284:	31 ed                	xor    %ebp,%ebp
    2286:	49 89 d1             	mov    %rdx,%r9
    2289:	5e                   	pop    %rsi
    228a:	48 89 e2             	mov    %rsp,%rdx
    228d:	48 83 e4 f0          	and    $0xfffffffffffffff0,%rsp
    2291:	50                   	push   %rax
    2292:	54                   	push   %rsp
    2293:	4c 8d 05 b6 3a 00 00 	lea    0x3ab6(%rip),%r8        # 5d50 <__libc_csu_fini>
    229a:	48 8d 0d 3f 3a 00 00 	lea    0x3a3f(%rip),%rcx        # 5ce0 <__libc_csu_init>
    22a1:	48 8d 3d 39 0b 00 00 	lea    0xb39(%rip),%rdi        # 2de1 <main>
    22a8:	ff 15 32 7d 00 00    	callq  *0x7d32(%rip)        # 9fe0 <__libc_start_main@GLIBC_2.2.5>
    22ae:	f4                   	hlt    
    22af:	90                   	nop

00000000000022b0 <deregister_tm_clones>:
    22b0:	48 8d 3d a1 7e 00 00 	lea    0x7ea1(%rip),%rdi        # a158 <__TMC_END__>
    22b7:	48 8d 05 9a 7e 00 00 	lea    0x7e9a(%rip),%rax        # a158 <__TMC_END__>
    22be:	48 39 f8             	cmp    %rdi,%rax
    22c1:	74 15                	je     22d8 <deregister_tm_clones+0x28>
    22c3:	48 8b 05 0e 7d 00 00 	mov    0x7d0e(%rip),%rax        # 9fd8 <_ITM_deregisterTMCloneTable>
    22ca:	48 85 c0             	test   %rax,%rax
    22cd:	74 09                	je     22d8 <deregister_tm_clones+0x28>
    22cf:	ff e0                	jmpq   *%rax
    22d1:	0f 1f 80 00 00 00 00 	nopl   0x0(%rax)
    22d8:	c3                   	retq   
    22d9:	0f 1f 80 00 00 00 00 	nopl   0x0(%rax)

00000000000022e0 <register_tm_clones>:
    22e0:	48 8d 3d 71 7e 00 00 	lea    0x7e71(%rip),%rdi        # a158 <__TMC_END__>
    22e7:	48 8d 35 6a 7e 00 00 	lea    0x7e6a(%rip),%rsi        # a158 <__TMC_END__>
    22ee:	48 29 fe             	sub    %rdi,%rsi
    22f1:	48 89 f0             	mov    %rsi,%rax
    22f4:	48 c1 ee 3f          	shr    $0x3f,%rsi
    22f8:	48 c1 f8 03          	sar    $0x3,%rax
    22fc:	48 01 c6             	add    %rax,%rsi
    22ff:	48 d1 fe             	sar    %rsi
    2302:	74 14                	je     2318 <register_tm_clones+0x38>
    2304:	48 8b 05 e5 7c 00 00 	mov    0x7ce5(%rip),%rax        # 9ff0 <_ITM_registerTMCloneTable>
    230b:	48 85 c0             	test   %rax,%rax
    230e:	74 08                	je     2318 <register_tm_clones+0x38>
    2310:	ff e0                	jmpq   *%rax
    2312:	66 0f 1f 44 00 00    	nopw   0x0(%rax,%rax,1)
    2318:	c3                   	retq   
    2319:	0f 1f 80 00 00 00 00 	nopl   0x0(%rax)

0000000000002320 <__do_global_dtors_aux>:
    2320:	f3 0f 1e fa          	endbr64 
    2324:	80 3d 6d 80 00 00 00 	cmpb   $0x0,0x806d(%rip)        # a398 <completed.7383>
    232b:	75 33                	jne    2360 <__do_global_dtors_aux+0x40>
    232d:	55                   	push   %rbp
    232e:	48 83 3d 9a 7c 00 00 	cmpq   $0x0,0x7c9a(%rip)        # 9fd0 <__cxa_finalize@GLIBC_2.2.5>
    2335:	00 
    2336:	48 89 e5             	mov    %rsp,%rbp
    2339:	74 0d                	je     2348 <__do_global_dtors_aux+0x28>
    233b:	48 8b 3d 06 7e 00 00 	mov    0x7e06(%rip),%rdi        # a148 <__dso_handle>
    2342:	ff 15 88 7c 00 00    	callq  *0x7c88(%rip)        # 9fd0 <__cxa_finalize@GLIBC_2.2.5>
    2348:	e8 63 ff ff ff       	callq  22b0 <deregister_tm_clones>
    234d:	c6 05 44 80 00 00 01 	movb   $0x1,0x8044(%rip)        # a398 <completed.7383>
    2354:	5d                   	pop    %rbp
    2355:	c3                   	retq   
    2356:	66 2e 0f 1f 84 00 00 	nopw   %cs:0x0(%rax,%rax,1)
    235d:	00 00 00 
    2360:	c3                   	retq   
    2361:	66 66 2e 0f 1f 84 00 	data16 nopw %cs:0x0(%rax,%rax,1)
    2368:	00 00 00 00 
    236c:	0f 1f 40 00          	nopl   0x0(%rax)

0000000000002370 <frame_dummy>:
    2370:	f3 0f 1e fa          	endbr64 
    2374:	e9 67 ff ff ff       	jmpq   22e0 <register_tm_clones>
    2379:	90                   	nop

000000000000237a <_Z15getRandomStringB5cxx11v>:
    237a:	55                   	push   %rbp
    237b:	48 89 e5             	mov    %rsp,%rbp
    237e:	53                   	push   %rbx
    237f:	48 83 ec 58          	sub    $0x58,%rsp
    2383:	48 89 7d a8          	mov    %rdi,-0x58(%rbp)
    2387:	64 48 8b 04 25 28 00 	mov    %fs:0x28,%rax
    238e:	00 00 
    2390:	48 89 45 e8          	mov    %rax,-0x18(%rbp)
    2394:	31 c0                	xor    %eax,%eax
    2396:	48 8d 45 bb          	lea    -0x45(%rbp),%rax
    239a:	48 89 c7             	mov    %rax,%rdi
    239d:	e8 9e fe ff ff       	callq  2240 <_ZNSaIcEC1Ev@plt>
    23a2:	48 8d 55 bb          	lea    -0x45(%rbp),%rdx
    23a6:	48 8b 45 a8          	mov    -0x58(%rbp),%rax
    23aa:	48 8d 35 58 3c 00 00 	lea    0x3c58(%rip),%rsi        # 6009 <_ZStL19piecewise_construct+0x1>
    23b1:	48 89 c7             	mov    %rax,%rdi
    23b4:	e8 f7 fd ff ff       	callq  21b0 <_ZNSt7__cxx1112basic_stringIcSt11char_traitsIcESaIcEEC1EPKcRKS3_@plt>
    23b9:	48 8d 45 bb          	lea    -0x45(%rbp),%rax
    23bd:	48 89 c7             	mov    %rax,%rdi
    23c0:	e8 9b fd ff ff       	callq  2160 <_ZNSaIcED1Ev@plt>
    23c5:	48 8d 45 bb          	lea    -0x45(%rbp),%rax
    23c9:	48 89 c7             	mov    %rax,%rdi
    23cc:	e8 6f fe ff ff       	callq  2240 <_ZNSaIcEC1Ev@plt>
    23d1:	48 8d 55 bb          	lea    -0x45(%rbp),%rdx
    23d5:	48 8d 45 c0          	lea    -0x40(%rbp),%rax
    23d9:	48 8d 35 30 3c 00 00 	lea    0x3c30(%rip),%rsi        # 6010 <_ZStL19piecewise_construct+0x8>
    23e0:	48 89 c7             	mov    %rax,%rdi
    23e3:	e8 c8 fd ff ff       	callq  21b0 <_ZNSt7__cxx1112basic_stringIcSt11char_traitsIcESaIcEEC1EPKcRKS3_@plt>
    23e8:	48 8d 45 bb          	lea    -0x45(%rbp),%rax
    23ec:	48 89 c7             	mov    %rax,%rdi
    23ef:	e8 6c fd ff ff       	callq  2160 <_ZNSaIcED1Ev@plt>
    23f4:	c7 45 bc 00 00 00 00 	movl   $0x0,-0x44(%rbp)
    23fb:	83 7d bc 07          	cmpl   $0x7,-0x44(%rbp)
    23ff:	7f 50                	jg     2451 <_Z15getRandomStringB5cxx11v+0xd7>
    2401:	e8 2a fc ff ff       	callq  2030 <rand@plt>
    2406:	48 63 d0             	movslq %eax,%rdx
    2409:	48 69 d2 4f ec c4 4e 	imul   $0x4ec4ec4f,%rdx,%rdx
    2410:	48 c1 ea 20          	shr    $0x20,%rdx
    2414:	89 d1                	mov    %edx,%ecx
    2416:	c1 f9 04             	sar    $0x4,%ecx
    2419:	99                   	cltd   
    241a:	29 d1                	sub    %edx,%ecx
    241c:	89 ca                	mov    %ecx,%edx
    241e:	6b d2 34             	imul   $0x34,%edx,%edx
    2421:	29 d0                	sub    %edx,%eax
    2423:	89 c2                	mov    %eax,%edx
    2425:	48 63 d2             	movslq %edx,%rdx
    2428:	48 8d 45 c0          	lea    -0x40(%rbp),%rax
    242c:	48 89 d6             	mov    %rdx,%rsi
    242f:	48 89 c7             	mov    %rax,%rdi
    2432:	e8 29 fe ff ff       	callq  2260 <_ZNSt7__cxx1112basic_stringIcSt11char_traitsIcESaIcEE2atEm@plt>
    2437:	0f b6 00             	movzbl (%rax),%eax
    243a:	0f be d0             	movsbl %al,%edx
    243d:	48 8b 45 a8          	mov    -0x58(%rbp),%rax
    2441:	89 d6                	mov    %edx,%esi
    2443:	48 89 c7             	mov    %rax,%rdi
    2446:	e8 75 fc ff ff       	callq  20c0 <_ZNSt7__cxx1112basic_stringIcSt11char_traitsIcESaIcEEpLEc@plt>
    244b:	83 45 bc 01          	addl   $0x1,-0x44(%rbp)
    244f:	eb aa                	jmp    23fb <_Z15getRandomStringB5cxx11v+0x81>
    2451:	90                   	nop
    2452:	48 8d 45 c0          	lea    -0x40(%rbp),%rax
    2456:	48 89 c7             	mov    %rax,%rdi
    2459:	e8 52 fc ff ff       	callq  20b0 <_ZNSt7__cxx1112basic_stringIcSt11char_traitsIcESaIcEED1Ev@plt>
    245e:	90                   	nop
    245f:	48 8b 45 e8          	mov    -0x18(%rbp),%rax
    2463:	64 48 33 04 25 28 00 	xor    %fs:0x28,%rax
    246a:	00 00 
    246c:	74 58                	je     24c6 <_Z15getRandomStringB5cxx11v+0x14c>
    246e:	eb 51                	jmp    24c1 <_Z15getRandomStringB5cxx11v+0x147>
    2470:	48 89 c3             	mov    %rax,%rbx
    2473:	48 8d 45 bb          	lea    -0x45(%rbp),%rax
    2477:	48 89 c7             	mov    %rax,%rdi
    247a:	e8 e1 fc ff ff       	callq  2160 <_ZNSaIcED1Ev@plt>
    247f:	48 89 d8             	mov    %rbx,%rax
    2482:	48 89 c7             	mov    %rax,%rdi
    2485:	e8 a6 fd ff ff       	callq  2230 <_Unwind_Resume@plt>
    248a:	48 89 c3             	mov    %rax,%rbx
    248d:	48 8d 45 bb          	lea    -0x45(%rbp),%rax
    2491:	48 89 c7             	mov    %rax,%rdi
    2494:	e8 c7 fc ff ff       	callq  2160 <_ZNSaIcED1Ev@plt>
    2499:	eb 0f                	jmp    24aa <_Z15getRandomStringB5cxx11v+0x130>
    249b:	48 89 c3             	mov    %rax,%rbx
    249e:	48 8d 45 c0          	lea    -0x40(%rbp),%rax
    24a2:	48 89 c7             	mov    %rax,%rdi
    24a5:	e8 06 fc ff ff       	callq  20b0 <_ZNSt7__cxx1112basic_stringIcSt11char_traitsIcESaIcEED1Ev@plt>
    24aa:	48 8b 45 a8          	mov    -0x58(%rbp),%rax
    24ae:	48 89 c7             	mov    %rax,%rdi
    24b1:	e8 fa fb ff ff       	callq  20b0 <_ZNSt7__cxx1112basic_stringIcSt11char_traitsIcESaIcEED1Ev@plt>
    24b6:	48 89 d8             	mov    %rbx,%rax
    24b9:	48 89 c7             	mov    %rax,%rdi
    24bc:	e8 6f fd ff ff       	callq  2230 <_Unwind_Resume@plt>
    24c1:	e8 aa fc ff ff       	callq  2170 <__stack_chk_fail@plt>
    24c6:	48 8b 45 a8          	mov    -0x58(%rbp),%rax
    24ca:	48 83 c4 58          	add    $0x58,%rsp
    24ce:	5b                   	pop    %rbx
    24cf:	5d                   	pop    %rbp
    24d0:	c3                   	retq   

00000000000024d1 <_Z10hashStringNSt7__cxx1112basic_stringIcSt11char_traitsIcESaIcEEE>:
    24d1:	55                   	push   %rbp
    24d2:	48 89 e5             	mov    %rsp,%rbp
    24d5:	53                   	push   %rbx
    24d6:	48 83 ec 28          	sub    $0x28,%rsp
    24da:	48 89 7d d8          	mov    %rdi,-0x28(%rbp)
    24de:	48 c7 45 e8 00 00 00 	movq   $0x0,-0x18(%rbp)
    24e5:	00 
    24e6:	c7 45 e4 00 00 00 00 	movl   $0x0,-0x1c(%rbp)
    24ed:	8b 45 e4             	mov    -0x1c(%rbp),%eax
    24f0:	48 63 d8             	movslq %eax,%rbx
    24f3:	48 8b 45 d8          	mov    -0x28(%rbp),%rax
    24f7:	48 89 c7             	mov    %rax,%rdi
    24fa:	e8 e1 fc ff ff       	callq  21e0 <_ZNKSt7__cxx1112basic_stringIcSt11char_traitsIcESaIcEE6lengthEv@plt>
    24ff:	48 39 c3             	cmp    %rax,%rbx
    2502:	0f 92 c0             	setb   %al
    2505:	84 c0                	test   %al,%al
    2507:	74 27                	je     2530 <_Z10hashStringNSt7__cxx1112basic_stringIcSt11char_traitsIcESaIcEEE+0x5f>
    2509:	8b 45 e4             	mov    -0x1c(%rbp),%eax
    250c:	48 63 d0             	movslq %eax,%rdx
    250f:	48 8b 45 d8          	mov    -0x28(%rbp),%rax
    2513:	48 89 d6             	mov    %rdx,%rsi
    2516:	48 89 c7             	mov    %rax,%rdi
    2519:	e8 72 fc ff ff       	callq  2190 <_ZNKSt7__cxx1112basic_stringIcSt11char_traitsIcESaIcEE2atEm@plt>
    251e:	0f b6 00             	movzbl (%rax),%eax
    2521:	0f be c0             	movsbl %al,%eax
    2524:	48 98                	cltq   
    2526:	48 01 45 e8          	add    %rax,-0x18(%rbp)
    252a:	83 45 e4 01          	addl   $0x1,-0x1c(%rbp)
    252e:	eb bd                	jmp    24ed <_Z10hashStringNSt7__cxx1112basic_stringIcSt11char_traitsIcESaIcEEE+0x1c>
    2530:	48 8b 45 e8          	mov    -0x18(%rbp),%rax
    2534:	48 83 c4 28          	add    $0x28,%rsp
    2538:	5b                   	pop    %rbx
    2539:	5d                   	pop    %rbp
    253a:	c3                   	retq   

000000000000253b <_Z11isSubstringNSt7__cxx1112basic_stringIcSt11char_traitsIcESaIcEEES4_>:
    253b:	55                   	push   %rbp
    253c:	48 89 e5             	mov    %rsp,%rbp
    253f:	41 54                	push   %r12
    2541:	53                   	push   %rbx
    2542:	48 81 ec 90 00 00 00 	sub    $0x90,%rsp
    2549:	48 89 bd 68 ff ff ff 	mov    %rdi,-0x98(%rbp)
    2550:	48 89 b5 60 ff ff ff 	mov    %rsi,-0xa0(%rbp)
    2557:	64 48 8b 04 25 28 00 	mov    %fs:0x28,%rax
    255e:	00 00 
    2560:	48 89 45 e8          	mov    %rax,-0x18(%rbp)
    2564:	31 c0                	xor    %eax,%eax
    2566:	48 8d 45 a0          	lea    -0x60(%rbp),%rax
    256a:	48 89 c7             	mov    %rax,%rdi
    256d:	e8 ea 0b 00 00       	callq  315c <_ZNSt6vectorISt4pairImjESaIS1_EEC1Ev>
    2572:	48 8b 85 60 ff ff ff 	mov    -0xa0(%rbp),%rax
    2579:	48 89 c7             	mov    %rax,%rdi
    257c:	e8 5f fc ff ff       	callq  21e0 <_ZNKSt7__cxx1112basic_stringIcSt11char_traitsIcESaIcEE6lengthEv@plt>
    2581:	48 89 c3             	mov    %rax,%rbx
    2584:	48 8b 85 68 ff ff ff 	mov    -0x98(%rbp),%rax
    258b:	48 89 c7             	mov    %rax,%rdi
    258e:	e8 4d fc ff ff       	callq  21e0 <_ZNKSt7__cxx1112basic_stringIcSt11char_traitsIcESaIcEE6lengthEv@plt>
    2593:	48 39 c3             	cmp    %rax,%rbx
    2596:	0f 97 c0             	seta   %al
    2599:	84 c0                	test   %al,%al
    259b:	74 0a                	je     25a7 <_Z11isSubstringNSt7__cxx1112basic_stringIcSt11char_traitsIcESaIcEEES4_+0x6c>
    259d:	bb 00 00 00 00       	mov    $0x0,%ebx
    25a2:	e9 fb 01 00 00       	jmpq   27a2 <_Z11isSubstringNSt7__cxx1112basic_stringIcSt11char_traitsIcESaIcEEES4_+0x267>
    25a7:	c7 85 78 ff ff ff 00 	movl   $0x0,-0x88(%rbp)
    25ae:	00 00 00 
    25b1:	8b 85 78 ff ff ff    	mov    -0x88(%rbp),%eax
    25b7:	4c 63 e0             	movslq %eax,%r12
    25ba:	48 8b 85 68 ff ff ff 	mov    -0x98(%rbp),%rax
    25c1:	48 89 c7             	mov    %rax,%rdi
    25c4:	e8 17 fc ff ff       	callq  21e0 <_ZNKSt7__cxx1112basic_stringIcSt11char_traitsIcESaIcEE6lengthEv@plt>
    25c9:	48 89 c3             	mov    %rax,%rbx
    25cc:	48 8b 85 60 ff ff ff 	mov    -0xa0(%rbp),%rax
    25d3:	48 89 c7             	mov    %rax,%rdi
    25d6:	e8 05 fc ff ff       	callq  21e0 <_ZNKSt7__cxx1112basic_stringIcSt11char_traitsIcESaIcEE6lengthEv@plt>
    25db:	48 89 c1             	mov    %rax,%rcx
    25de:	48 89 d8             	mov    %rbx,%rax
    25e1:	ba 00 00 00 00       	mov    $0x0,%edx
    25e6:	48 f7 f1             	div    %rcx
    25e9:	48 83 c0 01          	add    $0x1,%rax
    25ed:	49 39 c4             	cmp    %rax,%r12
    25f0:	0f 92 c0             	setb   %al
    25f3:	84 c0                	test   %al,%al
    25f5:	0f 84 8b 00 00 00    	je     2686 <_Z11isSubstringNSt7__cxx1112basic_stringIcSt11char_traitsIcESaIcEEES4_+0x14b>
    25fb:	48 8b 85 60 ff ff ff 	mov    -0xa0(%rbp),%rax
    2602:	48 89 c7             	mov    %rax,%rdi
    2605:	e8 d6 fb ff ff       	callq  21e0 <_ZNKSt7__cxx1112basic_stringIcSt11char_traitsIcESaIcEE6lengthEv@plt>
    260a:	48 89 c1             	mov    %rax,%rcx
    260d:	8b 85 78 ff ff ff    	mov    -0x88(%rbp),%eax
    2613:	48 63 d0             	movslq %eax,%rdx
    2616:	48 8d 45 c0          	lea    -0x40(%rbp),%rax
    261a:	48 8b b5 68 ff ff ff 	mov    -0x98(%rbp),%rsi
    2621:	48 89 c7             	mov    %rax,%rdi
    2624:	e8 27 fb ff ff       	callq  2150 <_ZNKSt7__cxx1112basic_stringIcSt11char_traitsIcESaIcEE6substrEmm@plt>
    2629:	48 8d 45 c0          	lea    -0x40(%rbp),%rax
    262d:	48 89 c7             	mov    %rax,%rdi
    2630:	e8 9c fe ff ff       	callq  24d1 <_Z10hashStringNSt7__cxx1112basic_stringIcSt11char_traitsIcESaIcEEE>
    2635:	48 89 45 80          	mov    %rax,-0x80(%rbp)
    2639:	48 8d 95 78 ff ff ff 	lea    -0x88(%rbp),%rdx
    2640:	48 8d 4d 80          	lea    -0x80(%rbp),%rcx
    2644:	48 8d 45 90          	lea    -0x70(%rbp),%rax
    2648:	48 89 ce             	mov    %rcx,%rsi
    264b:	48 89 c7             	mov    %rax,%rdi
    264e:	e8 e1 0c 00 00       	callq  3334 <_ZNSt4pairImjEC1ImRiLb1EEEOT_OT0_>
    2653:	48 8d 45 c0          	lea    -0x40(%rbp),%rax
    2657:	48 89 c7             	mov    %rax,%rdi
    265a:	e8 51 fa ff ff       	callq  20b0 <_ZNSt7__cxx1112basic_stringIcSt11char_traitsIcESaIcEED1Ev@plt>
    265f:	48 8d 55 90          	lea    -0x70(%rbp),%rdx
    2663:	48 8d 45 a0          	lea    -0x60(%rbp),%rax
    2667:	48 89 d6             	mov    %rdx,%rsi
    266a:	48 89 c7             	mov    %rax,%rdi
    266d:	e8 06 0d 00 00       	callq  3378 <_ZNSt6vectorISt4pairImjESaIS1_EE12emplace_backIJRS1_EEEvDpOT_>
    2672:	8b 85 78 ff ff ff    	mov    -0x88(%rbp),%eax
    2678:	83 c0 01             	add    $0x1,%eax
    267b:	89 85 78 ff ff ff    	mov    %eax,-0x88(%rbp)
    2681:	e9 2b ff ff ff       	jmpq   25b1 <_Z11isSubstringNSt7__cxx1112basic_stringIcSt11char_traitsIcESaIcEEES4_+0x76>
    2686:	48 8b 95 60 ff ff ff 	mov    -0xa0(%rbp),%rdx
    268d:	48 8d 45 c0          	lea    -0x40(%rbp),%rax
    2691:	48 89 d6             	mov    %rdx,%rsi
    2694:	48 89 c7             	mov    %rax,%rdi
    2697:	e8 d4 f9 ff ff       	callq  2070 <_ZNSt7__cxx1112basic_stringIcSt11char_traitsIcESaIcEEC1ERKS4_@plt>
    269c:	48 8d 45 c0          	lea    -0x40(%rbp),%rax
    26a0:	48 89 c7             	mov    %rax,%rdi
    26a3:	e8 29 fe ff ff       	callq  24d1 <_Z10hashStringNSt7__cxx1112basic_stringIcSt11char_traitsIcESaIcEEE>
    26a8:	48 89 45 88          	mov    %rax,-0x78(%rbp)
    26ac:	48 8d 45 c0          	lea    -0x40(%rbp),%rax
    26b0:	48 89 c7             	mov    %rax,%rdi
    26b3:	e8 f8 f9 ff ff       	callq  20b0 <_ZNSt7__cxx1112basic_stringIcSt11char_traitsIcESaIcEED1Ev@plt>
    26b8:	c6 85 77 ff ff ff 00 	movb   $0x0,-0x89(%rbp)
    26bf:	c7 85 7c ff ff ff 00 	movl   $0x0,-0x84(%rbp)
    26c6:	00 00 00 
    26c9:	8b 85 7c ff ff ff    	mov    -0x84(%rbp),%eax
    26cf:	48 63 d8             	movslq %eax,%rbx
    26d2:	48 8d 45 a0          	lea    -0x60(%rbp),%rax
    26d6:	48 89 c7             	mov    %rax,%rdi
    26d9:	e8 34 0d 00 00       	callq  3412 <_ZNKSt6vectorISt4pairImjESaIS1_EE4sizeEv>
    26de:	48 39 c3             	cmp    %rax,%rbx
    26e1:	0f 92 c0             	setb   %al
    26e4:	84 c0                	test   %al,%al
    26e6:	0f 84 af 00 00 00    	je     279b <_Z11isSubstringNSt7__cxx1112basic_stringIcSt11char_traitsIcESaIcEEES4_+0x260>
    26ec:	8b 85 7c ff ff ff    	mov    -0x84(%rbp),%eax
    26f2:	48 63 d0             	movslq %eax,%rdx
    26f5:	48 8d 45 a0          	lea    -0x60(%rbp),%rax
    26f9:	48 89 d6             	mov    %rdx,%rsi
    26fc:	48 89 c7             	mov    %rax,%rdi
    26ff:	e8 32 0d 00 00       	callq  3436 <_ZNSt6vectorISt4pairImjESaIS1_EEixEm>
    2704:	48 8b 00             	mov    (%rax),%rax
    2707:	48 39 45 88          	cmp    %rax,-0x78(%rbp)
    270b:	0f 94 c0             	sete   %al
    270e:	84 c0                	test   %al,%al
    2710:	74 7d                	je     278f <_Z11isSubstringNSt7__cxx1112basic_stringIcSt11char_traitsIcESaIcEEES4_+0x254>
    2712:	bb 00 00 00 00       	mov    $0x0,%ebx
    2717:	80 bd 77 ff ff ff 00 	cmpb   $0x0,-0x89(%rbp)
    271e:	75 4d                	jne    276d <_Z11isSubstringNSt7__cxx1112basic_stringIcSt11char_traitsIcESaIcEEES4_+0x232>
    2720:	48 8b 85 60 ff ff ff 	mov    -0xa0(%rbp),%rax
    2727:	48 89 c7             	mov    %rax,%rdi
    272a:	e8 b1 fa ff ff       	callq  21e0 <_ZNKSt7__cxx1112basic_stringIcSt11char_traitsIcESaIcEE6lengthEv@plt>
    272f:	48 89 c1             	mov    %rax,%rcx
    2732:	8b 85 7c ff ff ff    	mov    -0x84(%rbp),%eax
    2738:	48 63 d0             	movslq %eax,%rdx
    273b:	48 8d 45 c0          	lea    -0x40(%rbp),%rax
    273f:	48 8b b5 68 ff ff ff 	mov    -0x98(%rbp),%rsi
    2746:	48 89 c7             	mov    %rax,%rdi
    2749:	e8 02 fa ff ff       	callq  2150 <_ZNKSt7__cxx1112basic_stringIcSt11char_traitsIcESaIcEE6substrEmm@plt>
    274e:	bb 01 00 00 00       	mov    $0x1,%ebx
    2753:	48 8b 95 60 ff ff ff 	mov    -0xa0(%rbp),%rdx
    275a:	48 8d 45 c0          	lea    -0x40(%rbp),%rax
    275e:	48 89 d6             	mov    %rdx,%rsi
    2761:	48 89 c7             	mov    %rax,%rdi
    2764:	e8 ed 0c 00 00       	callq  3456 <_ZSteqIcEN9__gnu_cxx11__enable_ifIXsrSt9__is_charIT_E7__valueEbE6__typeERKNSt7__cxx1112basic_stringIS3_St11char_traitsIS3_ESaIS3_EEESE_>
    2769:	84 c0                	test   %al,%al
    276b:	74 07                	je     2774 <_Z11isSubstringNSt7__cxx1112basic_stringIcSt11char_traitsIcESaIcEEES4_+0x239>
    276d:	b8 01 00 00 00       	mov    $0x1,%eax
    2772:	eb 05                	jmp    2779 <_Z11isSubstringNSt7__cxx1112basic_stringIcSt11char_traitsIcESaIcEEES4_+0x23e>
    2774:	b8 00 00 00 00       	mov    $0x0,%eax
    2779:	88 85 77 ff ff ff    	mov    %al,-0x89(%rbp)
    277f:	84 db                	test   %bl,%bl
    2781:	74 0c                	je     278f <_Z11isSubstringNSt7__cxx1112basic_stringIcSt11char_traitsIcESaIcEEES4_+0x254>
    2783:	48 8d 45 c0          	lea    -0x40(%rbp),%rax
    2787:	48 89 c7             	mov    %rax,%rdi
    278a:	e8 21 f9 ff ff       	callq  20b0 <_ZNSt7__cxx1112basic_stringIcSt11char_traitsIcESaIcEED1Ev@plt>
    278f:	83 85 7c ff ff ff 01 	addl   $0x1,-0x84(%rbp)
    2796:	e9 2e ff ff ff       	jmpq   26c9 <_Z11isSubstringNSt7__cxx1112basic_stringIcSt11char_traitsIcESaIcEEES4_+0x18e>
    279b:	0f b6 9d 77 ff ff ff 	movzbl -0x89(%rbp),%ebx
    27a2:	48 8d 45 a0          	lea    -0x60(%rbp),%rax
    27a6:	48 89 c7             	mov    %rax,%rdi
    27a9:	e8 34 0b 00 00       	callq  32e2 <_ZNSt6vectorISt4pairImjESaIS1_EED1Ev>
    27ae:	89 d8                	mov    %ebx,%eax
    27b0:	48 8b 4d e8          	mov    -0x18(%rbp),%rcx
    27b4:	64 48 33 0c 25 28 00 	xor    %fs:0x28,%rcx
    27bb:	00 00 
    27bd:	74 63                	je     2822 <_Z11isSubstringNSt7__cxx1112basic_stringIcSt11char_traitsIcESaIcEEES4_+0x2e7>
    27bf:	eb 5c                	jmp    281d <_Z11isSubstringNSt7__cxx1112basic_stringIcSt11char_traitsIcESaIcEEES4_+0x2e2>
    27c1:	48 89 c3             	mov    %rax,%rbx
    27c4:	48 8d 45 c0          	lea    -0x40(%rbp),%rax
    27c8:	48 89 c7             	mov    %rax,%rdi
    27cb:	e8 e0 f8 ff ff       	callq  20b0 <_ZNSt7__cxx1112basic_stringIcSt11char_traitsIcESaIcEED1Ev@plt>
    27d0:	48 89 d8             	mov    %rbx,%rax
    27d3:	eb 00                	jmp    27d5 <_Z11isSubstringNSt7__cxx1112basic_stringIcSt11char_traitsIcESaIcEEES4_+0x29a>
    27d5:	48 89 c3             	mov    %rax,%rbx
    27d8:	eb 2c                	jmp    2806 <_Z11isSubstringNSt7__cxx1112basic_stringIcSt11char_traitsIcESaIcEEES4_+0x2cb>
    27da:	48 89 c3             	mov    %rax,%rbx
    27dd:	48 8d 45 c0          	lea    -0x40(%rbp),%rax
    27e1:	48 89 c7             	mov    %rax,%rdi
    27e4:	e8 c7 f8 ff ff       	callq  20b0 <_ZNSt7__cxx1112basic_stringIcSt11char_traitsIcESaIcEED1Ev@plt>
    27e9:	eb 1b                	jmp    2806 <_Z11isSubstringNSt7__cxx1112basic_stringIcSt11char_traitsIcESaIcEEES4_+0x2cb>
    27eb:	49 89 c4             	mov    %rax,%r12
    27ee:	84 db                	test   %bl,%bl
    27f0:	74 0c                	je     27fe <_Z11isSubstringNSt7__cxx1112basic_stringIcSt11char_traitsIcESaIcEEES4_+0x2c3>
    27f2:	48 8d 45 c0          	lea    -0x40(%rbp),%rax
    27f6:	48 89 c7             	mov    %rax,%rdi
    27f9:	e8 b2 f8 ff ff       	callq  20b0 <_ZNSt7__cxx1112basic_stringIcSt11char_traitsIcESaIcEED1Ev@plt>
    27fe:	4c 89 e3             	mov    %r12,%rbx
    2801:	eb 03                	jmp    2806 <_Z11isSubstringNSt7__cxx1112basic_stringIcSt11char_traitsIcESaIcEEES4_+0x2cb>
    2803:	48 89 c3             	mov    %rax,%rbx
    2806:	48 8d 45 a0          	lea    -0x60(%rbp),%rax
    280a:	48 89 c7             	mov    %rax,%rdi
    280d:	e8 d0 0a 00 00       	callq  32e2 <_ZNSt6vectorISt4pairImjESaIS1_EED1Ev>
    2812:	48 89 d8             	mov    %rbx,%rax
    2815:	48 89 c7             	mov    %rax,%rdi
    2818:	e8 13 fa ff ff       	callq  2230 <_Unwind_Resume@plt>
    281d:	e8 4e f9 ff ff       	callq  2170 <__stack_chk_fail@plt>
    2822:	48 81 c4 90 00 00 00 	add    $0x90,%rsp
    2829:	5b                   	pop    %rbx
    282a:	41 5c                	pop    %r12
    282c:	5d                   	pop    %rbp
    282d:	c3                   	retq   

000000000000282e <_Z20generateRandomVectorj>:
    282e:	55                   	push   %rbp
    282f:	48 89 e5             	mov    %rsp,%rbp
    2832:	53                   	push   %rbx
    2833:	48 83 ec 28          	sub    $0x28,%rsp
    2837:	48 89 7d d8          	mov    %rdi,-0x28(%rbp)
    283b:	89 75 d4             	mov    %esi,-0x2c(%rbp)
    283e:	64 48 8b 04 25 28 00 	mov    %fs:0x28,%rax
    2845:	00 00 
    2847:	48 89 45 e8          	mov    %rax,-0x18(%rbp)
    284b:	31 c0                	xor    %eax,%eax
    284d:	48 8b 45 d8          	mov    -0x28(%rbp),%rax
    2851:	48 89 c7             	mov    %rax,%rdi
    2854:	e8 57 09 00 00       	callq  31b0 <_ZNSt6vectorIiSaIiEEC1Ev>
    2859:	c7 45 e4 00 00 00 00 	movl   $0x0,-0x1c(%rbp)
    2860:	8b 45 e4             	mov    -0x1c(%rbp),%eax
    2863:	39 45 d4             	cmp    %eax,-0x2c(%rbp)
    2866:	76 45                	jbe    28ad <_Z20generateRandomVectorj+0x7f>
    2868:	e8 c3 f7 ff ff       	callq  2030 <rand@plt>
    286d:	ba 00 00 00 00       	mov    $0x0,%edx
    2872:	f7 75 d4             	divl   -0x2c(%rbp)
    2875:	89 d0                	mov    %edx,%eax
    2877:	89 45 e0             	mov    %eax,-0x20(%rbp)
    287a:	48 8d 55 e0          	lea    -0x20(%rbp),%rdx
    287e:	48 8b 45 d8          	mov    -0x28(%rbp),%rax
    2882:	48 89 d6             	mov    %rdx,%rsi
    2885:	48 89 c7             	mov    %rax,%rdi
    2888:	e8 23 0d 00 00       	callq  35b0 <_ZNSt6vectorIiSaIiEE12emplace_backIJjEEEvDpOT_>
    288d:	83 45 e4 01          	addl   $0x1,-0x1c(%rbp)
    2891:	eb cd                	jmp    2860 <_Z20generateRandomVectorj+0x32>
    2893:	48 89 c3             	mov    %rax,%rbx
    2896:	48 8b 45 d8          	mov    -0x28(%rbp),%rax
    289a:	48 89 c7             	mov    %rax,%rdi
    289d:	e8 ca 0c 00 00       	callq  356c <_ZNSt6vectorIiSaIiEED1Ev>
    28a2:	48 89 d8             	mov    %rbx,%rax
    28a5:	48 89 c7             	mov    %rax,%rdi
    28a8:	e8 83 f9 ff ff       	callq  2230 <_Unwind_Resume@plt>
    28ad:	90                   	nop
    28ae:	48 8b 45 e8          	mov    -0x18(%rbp),%rax
    28b2:	64 48 33 04 25 28 00 	xor    %fs:0x28,%rax
    28b9:	00 00 
    28bb:	74 05                	je     28c2 <_Z20generateRandomVectorj+0x94>
    28bd:	e8 ae f8 ff ff       	callq  2170 <__stack_chk_fail@plt>
    28c2:	48 8b 45 d8          	mov    -0x28(%rbp),%rax
    28c6:	48 83 c4 28          	add    $0x28,%rsp
    28ca:	5b                   	pop    %rbx
    28cb:	5d                   	pop    %rbp
    28cc:	c3                   	retq   

00000000000028cd <_Z12createBitMapNSt7__cxx1112basic_stringIcSt11char_traitsIcESaIcEEESt6vectorIiSaIiEEii>:
    28cd:	55                   	push   %rbp
    28ce:	48 89 e5             	mov    %rsp,%rbp
    28d1:	53                   	push   %rbx
    28d2:	48 83 ec 68          	sub    $0x68,%rsp
    28d6:	48 89 7d a8          	mov    %rdi,-0x58(%rbp)
    28da:	48 89 75 a0          	mov    %rsi,-0x60(%rbp)
    28de:	48 89 55 98          	mov    %rdx,-0x68(%rbp)
    28e2:	89 4d 94             	mov    %ecx,-0x6c(%rbp)
    28e5:	44 89 45 90          	mov    %r8d,-0x70(%rbp)
    28e9:	64 48 8b 04 25 28 00 	mov    %fs:0x28,%rax
    28f0:	00 00 
    28f2:	48 89 45 e8          	mov    %rax,-0x18(%rbp)
    28f6:	31 c0                	xor    %eax,%eax
    28f8:	48 8d 45 c0          	lea    -0x40(%rbp),%rax
    28fc:	48 8b 4d a0          	mov    -0x60(%rbp),%rcx
    2900:	48 8d 15 3e 37 00 00 	lea    0x373e(%rip),%rdx        # 6045 <_ZStL19piecewise_construct+0x3d>
    2907:	48 89 ce             	mov    %rcx,%rsi
    290a:	48 89 c7             	mov    %rax,%rdi
    290d:	e8 b9 08 00 00       	callq  31cb <_ZStplIcSt11char_traitsIcESaIcEENSt7__cxx1112basic_stringIT_T0_T1_EERKS8_PKS5_>
    2912:	48 8d 45 c0          	lea    -0x40(%rbp),%rax
    2916:	48 89 c7             	mov    %rax,%rdi
    2919:	e8 42 f7 ff ff       	callq  2060 <_ZNKSt7__cxx1112basic_stringIcSt11char_traitsIcESaIcEE5c_strEv@plt>
    291e:	48 8d 35 25 37 00 00 	lea    0x3725(%rip),%rsi        # 604a <_ZStL19piecewise_construct+0x42>
    2925:	48 89 c7             	mov    %rax,%rdi
    2928:	e8 53 f8 ff ff       	callq  2180 <fopen@plt>
    292d:	48 89 45 b8          	mov    %rax,-0x48(%rbp)
    2931:	48 8d 45 c0          	lea    -0x40(%rbp),%rax
    2935:	48 89 c7             	mov    %rax,%rdi
    2938:	e8 73 f7 ff ff       	callq  20b0 <_ZNSt7__cxx1112basic_stringIcSt11char_traitsIcESaIcEED1Ev@plt>
    293d:	8b 4d 90             	mov    -0x70(%rbp),%ecx
    2940:	8b 55 94             	mov    -0x6c(%rbp),%edx
    2943:	48 8b 45 b8          	mov    -0x48(%rbp),%rax
    2947:	48 8d 35 ff 36 00 00 	lea    0x36ff(%rip),%rsi        # 604d <_ZStL19piecewise_construct+0x45>
    294e:	48 89 c7             	mov    %rax,%rdi
    2951:	b8 00 00 00 00       	mov    $0x0,%eax
    2956:	e8 65 f8 ff ff       	callq  21c0 <fprintf@plt>
    295b:	c7 45 b4 00 00 00 00 	movl   $0x0,-0x4c(%rbp)
    2962:	8b 45 94             	mov    -0x6c(%rbp),%eax
    2965:	0f af 45 90          	imul   -0x70(%rbp),%eax
    2969:	39 45 b4             	cmp    %eax,-0x4c(%rbp)
    296c:	0f 8d 92 00 00 00    	jge    2a04 <_Z12createBitMapNSt7__cxx1112basic_stringIcSt11char_traitsIcESaIcEEESt6vectorIiSaIiEEii+0x137>
    2972:	66 c7 45 e5 00 00    	movw   $0x0,-0x1b(%rbp)
    2978:	c6 45 e7 00          	movb   $0x0,-0x19(%rbp)
    297c:	8b 45 b4             	mov    -0x4c(%rbp),%eax
    297f:	48 63 d0             	movslq %eax,%rdx
    2982:	48 8b 45 98          	mov    -0x68(%rbp),%rax
    2986:	48 89 d6             	mov    %rdx,%rsi
    2989:	48 89 c7             	mov    %rax,%rdi
    298c:	e8 b9 0c 00 00       	callq  364a <_ZNKSt6vectorIiSaIiEEixEm>
    2991:	8b 00                	mov    (%rax),%eax
    2993:	85 c0                	test   %eax,%eax
    2995:	0f 94 c0             	sete   %al
    2998:	84 c0                	test   %al,%al
    299a:	75 42                	jne    29de <_Z12createBitMapNSt7__cxx1112basic_stringIcSt11char_traitsIcESaIcEEESt6vectorIiSaIiEEii+0x111>
    299c:	8b 45 b4             	mov    -0x4c(%rbp),%eax
    299f:	48 63 d0             	movslq %eax,%rdx
    29a2:	48 8b 45 98          	mov    -0x68(%rbp),%rax
    29a6:	48 89 d6             	mov    %rdx,%rsi
    29a9:	48 89 c7             	mov    %rax,%rdi
    29ac:	e8 99 0c 00 00       	callq  364a <_ZNKSt6vectorIiSaIiEEixEm>
    29b1:	8b 00                	mov    (%rax),%eax
    29b3:	83 f8 04             	cmp    $0x4,%eax
    29b6:	0f 94 c0             	sete   %al
    29b9:	84 c0                	test   %al,%al
    29bb:	75 21                	jne    29de <_Z12createBitMapNSt7__cxx1112basic_stringIcSt11char_traitsIcESaIcEEESt6vectorIiSaIiEEii+0x111>
    29bd:	8b 45 b4             	mov    -0x4c(%rbp),%eax
    29c0:	48 63 d0             	movslq %eax,%rdx
    29c3:	48 8b 45 98          	mov    -0x68(%rbp),%rax
    29c7:	48 89 d6             	mov    %rdx,%rsi
    29ca:	48 89 c7             	mov    %rax,%rdi
    29cd:	e8 78 0c 00 00       	callq  364a <_ZNKSt6vectorIiSaIiEEixEm>
    29d2:	8b 00                	mov    (%rax),%eax
    29d4:	83 e8 01             	sub    $0x1,%eax
    29d7:	48 98                	cltq   
    29d9:	c6 44 05 e5 ff       	movb   $0xff,-0x1b(%rbp,%rax,1)
    29de:	48 8b 55 b8          	mov    -0x48(%rbp),%rdx
    29e2:	48 8d 45 e5          	lea    -0x1b(%rbp),%rax
    29e6:	48 89 d1             	mov    %rdx,%rcx
    29e9:	ba 03 00 00 00       	mov    $0x3,%edx
    29ee:	be 01 00 00 00       	mov    $0x1,%esi
    29f3:	48 89 c7             	mov    %rax,%rdi
    29f6:	e8 75 f8 ff ff       	callq  2270 <fwrite@plt>
    29fb:	83 45 b4 01          	addl   $0x1,-0x4c(%rbp)
    29ff:	e9 5e ff ff ff       	jmpq   2962 <_Z12createBitMapNSt7__cxx1112basic_stringIcSt11char_traitsIcESaIcEEESt6vectorIiSaIiEEii+0x95>
    2a04:	48 8b 45 b8          	mov    -0x48(%rbp),%rax
    2a08:	48 89 c7             	mov    %rax,%rdi
    2a0b:	e8 10 f7 ff ff       	callq  2120 <fclose@plt>
    2a10:	48 8b 45 a8          	mov    -0x58(%rbp),%rax
    2a14:	48 8b 4d a0          	mov    -0x60(%rbp),%rcx
    2a18:	48 8d 15 26 36 00 00 	lea    0x3626(%rip),%rdx        # 6045 <_ZStL19piecewise_construct+0x3d>
    2a1f:	48 89 ce             	mov    %rcx,%rsi
    2a22:	48 89 c7             	mov    %rax,%rdi
    2a25:	e8 a1 07 00 00       	callq  31cb <_ZStplIcSt11char_traitsIcESaIcEENSt7__cxx1112basic_stringIT_T0_T1_EERKS8_PKS5_>
    2a2a:	48 8b 45 e8          	mov    -0x18(%rbp),%rax
    2a2e:	64 48 33 04 25 28 00 	xor    %fs:0x28,%rax
    2a35:	00 00 
    2a37:	74 21                	je     2a5a <_Z12createBitMapNSt7__cxx1112basic_stringIcSt11char_traitsIcESaIcEEESt6vectorIiSaIiEEii+0x18d>
    2a39:	eb 1a                	jmp    2a55 <_Z12createBitMapNSt7__cxx1112basic_stringIcSt11char_traitsIcESaIcEEESt6vectorIiSaIiEEii+0x188>
    2a3b:	48 89 c3             	mov    %rax,%rbx
    2a3e:	48 8d 45 c0          	lea    -0x40(%rbp),%rax
    2a42:	48 89 c7             	mov    %rax,%rdi
    2a45:	e8 66 f6 ff ff       	callq  20b0 <_ZNSt7__cxx1112basic_stringIcSt11char_traitsIcESaIcEED1Ev@plt>
    2a4a:	48 89 d8             	mov    %rbx,%rax
    2a4d:	48 89 c7             	mov    %rax,%rdi
    2a50:	e8 db f7 ff ff       	callq  2230 <_Unwind_Resume@plt>
    2a55:	e8 16 f7 ff ff       	callq  2170 <__stack_chk_fail@plt>
    2a5a:	48 8b 45 a8          	mov    -0x58(%rbp),%rax
    2a5e:	48 83 c4 68          	add    $0x68,%rsp
    2a62:	5b                   	pop    %rbx
    2a63:	5d                   	pop    %rbp
    2a64:	c3                   	retq   
    2a65:	90                   	nop

0000000000002a66 <_ZN4PileC1Ev>:
    2a66:	55                   	push   %rbp
    2a67:	48 89 e5             	mov    %rsp,%rbp
    2a6a:	53                   	push   %rbx
    2a6b:	48 83 ec 28          	sub    $0x28,%rsp
    2a6f:	48 89 7d d8          	mov    %rdi,-0x28(%rbp)
    2a73:	64 48 8b 04 25 28 00 	mov    %fs:0x28,%rax
    2a7a:	00 00 
    2a7c:	48 89 45 e8          	mov    %rax,-0x18(%rbp)
    2a80:	31 c0                	xor    %eax,%eax
    2a82:	48 8b 45 d8          	mov    -0x28(%rbp),%rax
    2a86:	48 89 c7             	mov    %rax,%rdi
    2a89:	e8 22 07 00 00       	callq  31b0 <_ZNSt6vectorIiSaIiEEC1Ev>
    2a8e:	48 8b 45 d8          	mov    -0x28(%rbp),%rax
    2a92:	c7 40 18 0b 00 00 00 	movl   $0xb,0x18(%rax)
    2a99:	48 8b 45 d8          	mov    -0x28(%rbp),%rax
    2a9d:	c7 40 1c 0b 00 00 00 	movl   $0xb,0x1c(%rax)
    2aa4:	48 8b 45 d8          	mov    -0x28(%rbp),%rax
    2aa8:	c7 45 e4 00 00 00 00 	movl   $0x0,-0x1c(%rbp)
    2aaf:	48 8b 55 d8          	mov    -0x28(%rbp),%rdx
    2ab3:	8b 4a 18             	mov    0x18(%rdx),%ecx
    2ab6:	48 8b 55 d8          	mov    -0x28(%rbp),%rdx
    2aba:	8b 52 1c             	mov    0x1c(%rdx),%edx
    2abd:	0f af d1             	imul   %ecx,%edx
    2ac0:	48 63 ca             	movslq %edx,%rcx
    2ac3:	48 8d 55 e4          	lea    -0x1c(%rbp),%rdx
    2ac7:	48 89 ce             	mov    %rcx,%rsi
    2aca:	48 89 c7             	mov    %rax,%rdi
    2acd:	e8 98 0b 00 00       	callq  366a <_ZNSt6vectorIiSaIiEE6assignEmRKi>
    2ad2:	eb 1a                	jmp    2aee <_ZN4PileC1Ev+0x88>
    2ad4:	48 89 c3             	mov    %rax,%rbx
    2ad7:	48 8b 45 d8          	mov    -0x28(%rbp),%rax
    2adb:	48 89 c7             	mov    %rax,%rdi
    2ade:	e8 89 0a 00 00       	callq  356c <_ZNSt6vectorIiSaIiEED1Ev>
    2ae3:	48 89 d8             	mov    %rbx,%rax
    2ae6:	48 89 c7             	mov    %rax,%rdi
    2ae9:	e8 42 f7 ff ff       	callq  2230 <_Unwind_Resume@plt>
    2aee:	48 8b 45 e8          	mov    -0x18(%rbp),%rax
    2af2:	64 48 33 04 25 28 00 	xor    %fs:0x28,%rax
    2af9:	00 00 
    2afb:	74 05                	je     2b02 <_ZN4PileC1Ev+0x9c>
    2afd:	e8 6e f6 ff ff       	callq  2170 <__stack_chk_fail@plt>
    2b02:	48 83 c4 28          	add    $0x28,%rsp
    2b06:	5b                   	pop    %rbx
    2b07:	5d                   	pop    %rbp
    2b08:	c3                   	retq   
    2b09:	90                   	nop

0000000000002b0a <_ZN4PileC1Eii>:
    2b0a:	55                   	push   %rbp
    2b0b:	48 89 e5             	mov    %rsp,%rbp
    2b0e:	53                   	push   %rbx
    2b0f:	48 83 ec 28          	sub    $0x28,%rsp
    2b13:	48 89 7d d8          	mov    %rdi,-0x28(%rbp)
    2b17:	89 75 d4             	mov    %esi,-0x2c(%rbp)
    2b1a:	89 55 d0             	mov    %edx,-0x30(%rbp)
    2b1d:	64 48 8b 04 25 28 00 	mov    %fs:0x28,%rax
    2b24:	00 00 
    2b26:	48 89 45 e8          	mov    %rax,-0x18(%rbp)
    2b2a:	31 c0                	xor    %eax,%eax
    2b2c:	48 8b 45 d8          	mov    -0x28(%rbp),%rax
    2b30:	48 89 c7             	mov    %rax,%rdi
    2b33:	e8 78 06 00 00       	callq  31b0 <_ZNSt6vectorIiSaIiEEC1Ev>
    2b38:	48 8b 45 d8          	mov    -0x28(%rbp),%rax
    2b3c:	8b 55 d0             	mov    -0x30(%rbp),%edx
    2b3f:	89 50 18             	mov    %edx,0x18(%rax)
    2b42:	48 8b 45 d8          	mov    -0x28(%rbp),%rax
    2b46:	8b 55 d4             	mov    -0x2c(%rbp),%edx
    2b49:	89 50 1c             	mov    %edx,0x1c(%rax)
    2b4c:	48 8b 45 d8          	mov    -0x28(%rbp),%rax
    2b50:	c7 45 e4 00 00 00 00 	movl   $0x0,-0x1c(%rbp)
    2b57:	8b 55 d0             	mov    -0x30(%rbp),%edx
    2b5a:	0f af 55 d4          	imul   -0x2c(%rbp),%edx
    2b5e:	48 63 ca             	movslq %edx,%rcx
    2b61:	48 8d 55 e4          	lea    -0x1c(%rbp),%rdx
    2b65:	48 89 ce             	mov    %rcx,%rsi
    2b68:	48 89 c7             	mov    %rax,%rdi
    2b6b:	e8 fa 0a 00 00       	callq  366a <_ZNSt6vectorIiSaIiEE6assignEmRKi>
    2b70:	eb 1a                	jmp    2b8c <_ZN4PileC1Eii+0x82>
    2b72:	48 89 c3             	mov    %rax,%rbx
    2b75:	48 8b 45 d8          	mov    -0x28(%rbp),%rax
    2b79:	48 89 c7             	mov    %rax,%rdi
    2b7c:	e8 eb 09 00 00       	callq  356c <_ZNSt6vectorIiSaIiEED1Ev>
    2b81:	48 89 d8             	mov    %rbx,%rax
    2b84:	48 89 c7             	mov    %rax,%rdi
    2b87:	e8 a4 f6 ff ff       	callq  2230 <_Unwind_Resume@plt>
    2b8c:	48 8b 45 e8          	mov    -0x18(%rbp),%rax
    2b90:	64 48 33 04 25 28 00 	xor    %fs:0x28,%rax
    2b97:	00 00 
    2b99:	74 05                	je     2ba0 <_ZN4PileC1Eii+0x96>
    2b9b:	e8 d0 f5 ff ff       	callq  2170 <__stack_chk_fail@plt>
    2ba0:	48 83 c4 28          	add    $0x28,%rsp
    2ba4:	5b                   	pop    %rbx
    2ba5:	5d                   	pop    %rbp
    2ba6:	c3                   	retq   
    2ba7:	90                   	nop

0000000000002ba8 <_ZN4Pile10printBoardEv>:
    2ba8:	55                   	push   %rbp
    2ba9:	48 89 e5             	mov    %rsp,%rbp
    2bac:	48 83 ec 20          	sub    $0x20,%rsp
    2bb0:	48 89 7d e8          	mov    %rdi,-0x18(%rbp)
    2bb4:	c7 45 f8 00 00 00 00 	movl   $0x0,-0x8(%rbp)
    2bbb:	48 8b 45 e8          	mov    -0x18(%rbp),%rax
    2bbf:	8b 40 18             	mov    0x18(%rax),%eax
    2bc2:	39 45 f8             	cmp    %eax,-0x8(%rbp)
    2bc5:	7d 78                	jge    2c3f <_ZN4Pile10printBoardEv+0x97>
    2bc7:	c7 45 fc 00 00 00 00 	movl   $0x0,-0x4(%rbp)
    2bce:	48 8b 45 e8          	mov    -0x18(%rbp),%rax
    2bd2:	8b 40 1c             	mov    0x1c(%rax),%eax
    2bd5:	39 45 fc             	cmp    %eax,-0x4(%rbp)
    2bd8:	7d 49                	jge    2c23 <_ZN4Pile10printBoardEv+0x7b>
    2bda:	48 8b 45 e8          	mov    -0x18(%rbp),%rax
    2bde:	8b 40 1c             	mov    0x1c(%rax),%eax
    2be1:	0f af 45 f8          	imul   -0x8(%rbp),%eax
    2be5:	89 c2                	mov    %eax,%edx
    2be7:	8b 45 fc             	mov    -0x4(%rbp),%eax
    2bea:	01 d0                	add    %edx,%eax
    2bec:	48 63 d0             	movslq %eax,%rdx
    2bef:	48 8b 45 e8          	mov    -0x18(%rbp),%rax
    2bf3:	48 89 d6             	mov    %rdx,%rsi
    2bf6:	48 89 c7             	mov    %rax,%rdi
    2bf9:	e8 9a 0a 00 00       	callq  3698 <_ZNSt6vectorIiSaIiEEixEm>
    2bfe:	8b 00                	mov    (%rax),%eax
    2c00:	89 c6                	mov    %eax,%esi
    2c02:	48 8d 3d 57 75 00 00 	lea    0x7557(%rip),%rdi        # a160 <_ZSt4cout@@GLIBCXX_3.4>
    2c09:	e8 12 f6 ff ff       	callq  2220 <_ZNSolsEi@plt>
    2c0e:	48 8d 35 46 34 00 00 	lea    0x3446(%rip),%rsi        # 605b <_ZStL19piecewise_construct+0x53>
    2c15:	48 89 c7             	mov    %rax,%rdi
    2c18:	e8 f3 f4 ff ff       	callq  2110 <_ZStlsISt11char_traitsIcEERSt13basic_ostreamIcT_ES5_PKc@plt>
    2c1d:	83 45 fc 01          	addl   $0x1,-0x4(%rbp)
    2c21:	eb ab                	jmp    2bce <_ZN4Pile10printBoardEv+0x26>
    2c23:	48 8d 35 33 34 00 00 	lea    0x3433(%rip),%rsi        # 605d <_ZStL19piecewise_construct+0x55>
    2c2a:	48 8d 3d 2f 75 00 00 	lea    0x752f(%rip),%rdi        # a160 <_ZSt4cout@@GLIBCXX_3.4>
    2c31:	e8 da f4 ff ff       	callq  2110 <_ZStlsISt11char_traitsIcEERSt13basic_ostreamIcT_ES5_PKc@plt>
    2c36:	83 45 f8 01          	addl   $0x1,-0x8(%rbp)
    2c3a:	e9 7c ff ff ff       	jmpq   2bbb <_ZN4Pile10printBoardEv+0x13>
    2c3f:	90                   	nop
    2c40:	c9                   	leaveq 
    2c41:	c3                   	retq   

0000000000002c42 <_ZN4Pile9placeSandEiii>:
    2c42:	55                   	push   %rbp
    2c43:	48 89 e5             	mov    %rsp,%rbp
    2c46:	48 83 ec 30          	sub    $0x30,%rsp
    2c4a:	48 89 7d e8          	mov    %rdi,-0x18(%rbp)
    2c4e:	89 75 e4             	mov    %esi,-0x1c(%rbp)
    2c51:	89 55 e0             	mov    %edx,-0x20(%rbp)
    2c54:	89 4d dc             	mov    %ecx,-0x24(%rbp)
    2c57:	48 8b 45 e8          	mov    -0x18(%rbp),%rax
    2c5b:	8b 40 1c             	mov    0x1c(%rax),%eax
    2c5e:	39 45 e4             	cmp    %eax,-0x1c(%rbp)
    2c61:	0f 8d 2a 01 00 00    	jge    2d91 <_ZN4Pile9placeSandEiii+0x14f>
    2c67:	48 8b 45 e8          	mov    -0x18(%rbp),%rax
    2c6b:	8b 40 18             	mov    0x18(%rax),%eax
    2c6e:	39 45 e0             	cmp    %eax,-0x20(%rbp)
    2c71:	0f 8d 1a 01 00 00    	jge    2d91 <_ZN4Pile9placeSandEiii+0x14f>
    2c77:	83 7d e4 00          	cmpl   $0x0,-0x1c(%rbp)
    2c7b:	0f 88 10 01 00 00    	js     2d91 <_ZN4Pile9placeSandEiii+0x14f>
    2c81:	83 7d e0 00          	cmpl   $0x0,-0x20(%rbp)
    2c85:	0f 88 06 01 00 00    	js     2d91 <_ZN4Pile9placeSandEiii+0x14f>
    2c8b:	48 8b 45 e8          	mov    -0x18(%rbp),%rax
    2c8f:	8b 40 1c             	mov    0x1c(%rax),%eax
    2c92:	0f af 45 e0          	imul   -0x20(%rbp),%eax
    2c96:	89 c2                	mov    %eax,%edx
    2c98:	8b 45 e4             	mov    -0x1c(%rbp),%eax
    2c9b:	01 d0                	add    %edx,%eax
    2c9d:	89 45 fc             	mov    %eax,-0x4(%rbp)
    2ca0:	8b 45 fc             	mov    -0x4(%rbp),%eax
    2ca3:	48 63 d0             	movslq %eax,%rdx
    2ca6:	48 8b 45 e8          	mov    -0x18(%rbp),%rax
    2caa:	48 89 d6             	mov    %rdx,%rsi
    2cad:	48 89 c7             	mov    %rax,%rdi
    2cb0:	e8 e3 09 00 00       	callq  3698 <_ZNSt6vectorIiSaIiEEixEm>
    2cb5:	8b 08                	mov    (%rax),%ecx
    2cb7:	8b 55 dc             	mov    -0x24(%rbp),%edx
    2cba:	01 ca                	add    %ecx,%edx
    2cbc:	89 10                	mov    %edx,(%rax)
    2cbe:	8b 45 fc             	mov    -0x4(%rbp),%eax
    2cc1:	48 63 d0             	movslq %eax,%rdx
    2cc4:	48 8b 45 e8          	mov    -0x18(%rbp),%rax
    2cc8:	48 89 d6             	mov    %rdx,%rsi
    2ccb:	48 89 c7             	mov    %rax,%rdi
    2cce:	e8 c5 09 00 00       	callq  3698 <_ZNSt6vectorIiSaIiEEixEm>
    2cd3:	8b 00                	mov    (%rax),%eax
    2cd5:	83 f8 03             	cmp    $0x3,%eax
    2cd8:	0f 9f c0             	setg   %al
    2cdb:	84 c0                	test   %al,%al
    2cdd:	0f 84 af 00 00 00    	je     2d92 <_ZN4Pile9placeSandEiii+0x150>
    2ce3:	8b 45 fc             	mov    -0x4(%rbp),%eax
    2ce6:	48 63 d0             	movslq %eax,%rdx
    2ce9:	48 8b 45 e8          	mov    -0x18(%rbp),%rax
    2ced:	48 89 d6             	mov    %rdx,%rsi
    2cf0:	48 89 c7             	mov    %rax,%rdi
    2cf3:	e8 a0 09 00 00       	callq  3698 <_ZNSt6vectorIiSaIiEEixEm>
    2cf8:	8b 00                	mov    (%rax),%eax
    2cfa:	83 f8 03             	cmp    $0x3,%eax
    2cfd:	0f 9f c0             	setg   %al
    2d00:	84 c0                	test   %al,%al
    2d02:	0f 84 8a 00 00 00    	je     2d92 <_ZN4Pile9placeSandEiii+0x150>
    2d08:	8b 45 fc             	mov    -0x4(%rbp),%eax
    2d0b:	48 63 d0             	movslq %eax,%rdx
    2d0e:	48 8b 45 e8          	mov    -0x18(%rbp),%rax
    2d12:	48 89 d6             	mov    %rdx,%rsi
    2d15:	48 89 c7             	mov    %rax,%rdi
    2d18:	e8 7b 09 00 00       	callq  3698 <_ZNSt6vectorIiSaIiEEixEm>
    2d1d:	8b 10                	mov    (%rax),%edx
    2d1f:	83 ea 04             	sub    $0x4,%edx
    2d22:	89 10                	mov    %edx,(%rax)
    2d24:	8b 45 e4             	mov    -0x1c(%rbp),%eax
    2d27:	8d 70 ff             	lea    -0x1(%rax),%esi
    2d2a:	8b 55 e0             	mov    -0x20(%rbp),%edx
    2d2d:	48 8b 45 e8          	mov    -0x18(%rbp),%rax
    2d31:	b9 01 00 00 00       	mov    $0x1,%ecx
    2d36:	48 89 c7             	mov    %rax,%rdi
    2d39:	e8 04 ff ff ff       	callq  2c42 <_ZN4Pile9placeSandEiii>
    2d3e:	8b 45 e4             	mov    -0x1c(%rbp),%eax
    2d41:	8d 70 01             	lea    0x1(%rax),%esi
    2d44:	8b 55 e0             	mov    -0x20(%rbp),%edx
    2d47:	48 8b 45 e8          	mov    -0x18(%rbp),%rax
    2d4b:	b9 01 00 00 00       	mov    $0x1,%ecx
    2d50:	48 89 c7             	mov    %rax,%rdi
    2d53:	e8 ea fe ff ff       	callq  2c42 <_ZN4Pile9placeSandEiii>
    2d58:	8b 45 e0             	mov    -0x20(%rbp),%eax
    2d5b:	8d 50 ff             	lea    -0x1(%rax),%edx
    2d5e:	8b 75 e4             	mov    -0x1c(%rbp),%esi
    2d61:	48 8b 45 e8          	mov    -0x18(%rbp),%rax
    2d65:	b9 01 00 00 00       	mov    $0x1,%ecx
    2d6a:	48 89 c7             	mov    %rax,%rdi
    2d6d:	e8 d0 fe ff ff       	callq  2c42 <_ZN4Pile9placeSandEiii>
    2d72:	8b 45 e0             	mov    -0x20(%rbp),%eax
    2d75:	8d 50 01             	lea    0x1(%rax),%edx
    2d78:	8b 75 e4             	mov    -0x1c(%rbp),%esi
    2d7b:	48 8b 45 e8          	mov    -0x18(%rbp),%rax
    2d7f:	b9 01 00 00 00       	mov    $0x1,%ecx
    2d84:	48 89 c7             	mov    %rax,%rdi
    2d87:	e8 b6 fe ff ff       	callq  2c42 <_ZN4Pile9placeSandEiii>
    2d8c:	e9 52 ff ff ff       	jmpq   2ce3 <_ZN4Pile9placeSandEiii+0xa1>
    2d91:	90                   	nop
    2d92:	c9                   	leaveq 
    2d93:	c3                   	retq   

0000000000002d94 <_ZN4Pile11returnBoardEv>:
    2d94:	55                   	push   %rbp
    2d95:	48 89 e5             	mov    %rsp,%rbp
    2d98:	48 83 ec 10          	sub    $0x10,%rsp
    2d9c:	48 89 7d f8          	mov    %rdi,-0x8(%rbp)
    2da0:	48 89 75 f0          	mov    %rsi,-0x10(%rbp)
    2da4:	48 8b 55 f0          	mov    -0x10(%rbp),%rdx
    2da8:	48 8b 45 f8          	mov    -0x8(%rbp),%rax
    2dac:	48 89 d6             	mov    %rdx,%rsi
    2daf:	48 89 c7             	mov    %rax,%rdi
    2db2:	e8 01 09 00 00       	callq  36b8 <_ZNSt6vectorIiSaIiEEC1ERKS1_>
    2db7:	48 8b 45 f8          	mov    -0x8(%rbp),%rax
    2dbb:	c9                   	leaveq 
    2dbc:	c3                   	retq   
    2dbd:	90                   	nop

0000000000002dbe <_ZN4Pile11returnWidthEv>:
    2dbe:	55                   	push   %rbp
    2dbf:	48 89 e5             	mov    %rsp,%rbp
    2dc2:	48 89 7d f8          	mov    %rdi,-0x8(%rbp)
    2dc6:	48 8b 45 f8          	mov    -0x8(%rbp),%rax
    2dca:	8b 40 1c             	mov    0x1c(%rax),%eax
    2dcd:	5d                   	pop    %rbp
    2dce:	c3                   	retq   
    2dcf:	90                   	nop

0000000000002dd0 <_ZN4Pile12returnLengthEv>:
    2dd0:	55                   	push   %rbp
    2dd1:	48 89 e5             	mov    %rsp,%rbp
    2dd4:	48 89 7d f8          	mov    %rdi,-0x8(%rbp)
    2dd8:	48 8b 45 f8          	mov    -0x8(%rbp),%rax
    2ddc:	8b 40 18             	mov    0x18(%rax),%eax
    2ddf:	5d                   	pop    %rbp
    2de0:	c3                   	retq   

0000000000002de1 <main>:
    2de1:	55                   	push   %rbp
    2de2:	48 89 e5             	mov    %rsp,%rbp
    2de5:	41 54                	push   %r12
    2de7:	53                   	push   %rbx
    2de8:	48 83 c4 80          	add    $0xffffffffffffff80,%rsp
    2dec:	64 48 8b 04 25 28 00 	mov    %fs:0x28,%rax
    2df3:	00 00 
    2df5:	48 89 45 e8          	mov    %rax,-0x18(%rbp)
    2df9:	31 c0                	xor    %eax,%eax
    2dfb:	bf 20 00 00 00       	mov    $0x20,%edi
    2e00:	e8 2b f3 ff ff       	callq  2130 <_Znwm@plt>
    2e05:	48 89 c3             	mov    %rax,%rbx
    2e08:	48 89 df             	mov    %rbx,%rdi
    2e0b:	e8 56 fc ff ff       	callq  2a66 <_ZN4PileC1Ev>
    2e10:	48 89 9d 78 ff ff ff 	mov    %rbx,-0x88(%rbp)
    2e17:	48 8d 35 42 32 00 00 	lea    0x3242(%rip),%rsi        # 6060 <_ZStL19piecewise_construct+0x58>
    2e1e:	48 8d 3d 3b 73 00 00 	lea    0x733b(%rip),%rdi        # a160 <_ZSt4cout@@GLIBCXX_3.4>
    2e25:	e8 e6 f2 ff ff       	callq  2110 <_ZStlsISt11char_traitsIcEERSt13basic_ostreamIcT_ES5_PKc@plt>
    2e2a:	48 8d 35 6f 32 00 00 	lea    0x326f(%rip),%rsi        # 60a0 <_ZStL19piecewise_construct+0x98>
    2e31:	48 89 c7             	mov    %rax,%rdi
    2e34:	e8 d7 f2 ff ff       	callq  2110 <_ZStlsISt11char_traitsIcEERSt13basic_ostreamIcT_ES5_PKc@plt>
    2e39:	48 8d 35 89 32 00 00 	lea    0x3289(%rip),%rsi        # 60c9 <_ZStL19piecewise_construct+0xc1>
    2e40:	48 89 c7             	mov    %rax,%rdi
    2e43:	e8 c8 f2 ff ff       	callq  2110 <_ZStlsISt11char_traitsIcEERSt13basic_ostreamIcT_ES5_PKc@plt>
    2e48:	48 8d 35 91 32 00 00 	lea    0x3291(%rip),%rsi        # 60e0 <_ZStL19piecewise_construct+0xd8>
    2e4f:	48 89 c7             	mov    %rax,%rdi
    2e52:	e8 b9 f2 ff ff       	callq  2110 <_ZStlsISt11char_traitsIcEERSt13basic_ostreamIcT_ES5_PKc@plt>
    2e57:	48 8d 85 70 ff ff ff 	lea    -0x90(%rbp),%rax
    2e5e:	48 89 c6             	mov    %rax,%rsi
    2e61:	48 8d 3d 18 74 00 00 	lea    0x7418(%rip),%rdi        # a280 <_ZSt3cin@@GLIBCXX_3.4>
    2e68:	e8 33 f2 ff ff       	callq  20a0 <_ZNSirsERi@plt>
    2e6d:	48 89 c2             	mov    %rax,%rdx
    2e70:	48 8d 85 74 ff ff ff 	lea    -0x8c(%rbp),%rax
    2e77:	48 89 c6             	mov    %rax,%rsi
    2e7a:	48 89 d7             	mov    %rdx,%rdi
    2e7d:	e8 1e f2 ff ff       	callq  20a0 <_ZNSirsERi@plt>
    2e82:	48 89 c2             	mov    %rax,%rdx
    2e85:	48 8d 45 80          	lea    -0x80(%rbp),%rax
    2e89:	48 89 c6             	mov    %rax,%rsi
    2e8c:	48 89 d7             	mov    %rdx,%rdi
    2e8f:	e8 0c f2 ff ff       	callq  20a0 <_ZNSirsERi@plt>
    2e94:	8b 85 70 ff ff ff    	mov    -0x90(%rbp),%eax
    2e9a:	83 f8 ff             	cmp    $0xffffffff,%eax
    2e9d:	75 64                	jne    2f03 <main+0x122>
    2e9f:	48 8b 85 78 ff ff ff 	mov    -0x88(%rbp),%rax
    2ea6:	48 89 c7             	mov    %rax,%rdi
    2ea9:	e8 22 ff ff ff       	callq  2dd0 <_ZN4Pile12returnLengthEv>
    2eae:	41 89 c4             	mov    %eax,%r12d
    2eb1:	48 8b 85 78 ff ff ff 	mov    -0x88(%rbp),%rax
    2eb8:	48 89 c7             	mov    %rax,%rdi
    2ebb:	e8 fe fe ff ff       	callq  2dbe <_ZN4Pile11returnWidthEv>
    2ec0:	89 c3                	mov    %eax,%ebx
    2ec2:	48 8d 45 80          	lea    -0x80(%rbp),%rax
    2ec6:	48 8b 95 78 ff ff ff 	mov    -0x88(%rbp),%rdx
    2ecd:	48 89 d6             	mov    %rdx,%rsi
    2ed0:	48 89 c7             	mov    %rax,%rdi
    2ed3:	e8 bc fe ff ff       	callq  2d94 <_ZN4Pile11returnBoardEv>
    2ed8:	48 8d 85 74 ff ff ff 	lea    -0x8c(%rbp),%rax
    2edf:	48 89 c7             	mov    %rax,%rdi
    2ee2:	e8 59 f3 ff ff       	callq  2240 <_ZNSaIcEC1Ev@plt>
    2ee7:	48 8d 95 74 ff ff ff 	lea    -0x8c(%rbp),%rdx
    2eee:	48 8d 45 a0          	lea    -0x60(%rbp),%rax
    2ef2:	48 8d 35 18 32 00 00 	lea    0x3218(%rip),%rsi        # 6111 <_ZStL19piecewise_construct+0x109>
    2ef9:	48 89 c7             	mov    %rax,%rdi
    2efc:	e8 af f2 ff ff       	callq  21b0 <_ZNSt7__cxx1112basic_stringIcSt11char_traitsIcESaIcEEC1EPKcRKS3_@plt>
    2f01:	eb 5a                	jmp    2f5d <main+0x17c>
    2f03:	8b 85 70 ff ff ff    	mov    -0x90(%rbp),%eax
    2f09:	83 f8 fe             	cmp    $0xfffffffe,%eax
    2f0c:	75 2c                	jne    2f3a <main+0x159>
    2f0e:	bf 20 00 00 00       	mov    $0x20,%edi
    2f13:	e8 18 f2 ff ff       	callq  2130 <_Znwm@plt>
    2f18:	48 89 c3             	mov    %rax,%rbx
    2f1b:	8b 55 80             	mov    -0x80(%rbp),%edx
    2f1e:	8b 85 74 ff ff ff    	mov    -0x8c(%rbp),%eax
    2f24:	89 c6                	mov    %eax,%esi
    2f26:	48 89 df             	mov    %rbx,%rdi
    2f29:	e8 dc fb ff ff       	callq  2b0a <_ZN4PileC1Eii>
    2f2e:	48 89 9d 78 ff ff ff 	mov    %rbx,-0x88(%rbp)
    2f35:	e9 1d ff ff ff       	jmpq   2e57 <main+0x76>
    2f3a:	8b 4d 80             	mov    -0x80(%rbp),%ecx
    2f3d:	8b 95 74 ff ff ff    	mov    -0x8c(%rbp),%edx
    2f43:	8b b5 70 ff ff ff    	mov    -0x90(%rbp),%esi
    2f49:	48 8b 85 78 ff ff ff 	mov    -0x88(%rbp),%rax
    2f50:	48 89 c7             	mov    %rax,%rdi
    2f53:	e8 ea fc ff ff       	callq  2c42 <_ZN4Pile9placeSandEiii>
    2f58:	e9 fa fe ff ff       	jmpq   2e57 <main+0x76>
    2f5d:	48 8d 45 c0          	lea    -0x40(%rbp),%rax
    2f61:	48 8d 55 80          	lea    -0x80(%rbp),%rdx
    2f65:	48 8d 75 a0          	lea    -0x60(%rbp),%rsi
    2f69:	45 89 e0             	mov    %r12d,%r8d
    2f6c:	89 d9                	mov    %ebx,%ecx
    2f6e:	48 89 c7             	mov    %rax,%rdi
    2f71:	e8 57 f9 ff ff       	callq  28cd <_Z12createBitMapNSt7__cxx1112basic_stringIcSt11char_traitsIcESaIcEEESt6vectorIiSaIiEEii>
    2f76:	48 8d 45 c0          	lea    -0x40(%rbp),%rax
    2f7a:	48 89 c6             	mov    %rax,%rsi
    2f7d:	48 8d 3d dc 71 00 00 	lea    0x71dc(%rip),%rdi        # a160 <_ZSt4cout@@GLIBCXX_3.4>
    2f84:	e8 67 f1 ff ff       	callq  20f0 <_ZStlsIcSt11char_traitsIcESaIcEERSt13basic_ostreamIT_T0_ES7_RKNSt7__cxx1112basic_stringIS4_S5_T1_EE@plt>
    2f89:	48 8d 35 89 31 00 00 	lea    0x3189(%rip),%rsi        # 6119 <_ZStL19piecewise_construct+0x111>
    2f90:	48 89 c7             	mov    %rax,%rdi
    2f93:	e8 78 f1 ff ff       	callq  2110 <_ZStlsISt11char_traitsIcEERSt13basic_ostreamIcT_ES5_PKc@plt>
    2f98:	48 8d 45 c0          	lea    -0x40(%rbp),%rax
    2f9c:	48 89 c7             	mov    %rax,%rdi
    2f9f:	e8 0c f1 ff ff       	callq  20b0 <_ZNSt7__cxx1112basic_stringIcSt11char_traitsIcESaIcEED1Ev@plt>
    2fa4:	48 8d 45 a0          	lea    -0x60(%rbp),%rax
    2fa8:	48 89 c7             	mov    %rax,%rdi
    2fab:	e8 00 f1 ff ff       	callq  20b0 <_ZNSt7__cxx1112basic_stringIcSt11char_traitsIcESaIcEED1Ev@plt>
    2fb0:	48 8d 85 74 ff ff ff 	lea    -0x8c(%rbp),%rax
    2fb7:	48 89 c7             	mov    %rax,%rdi
    2fba:	e8 a1 f1 ff ff       	callq  2160 <_ZNSaIcED1Ev@plt>
    2fbf:	48 8d 45 80          	lea    -0x80(%rbp),%rax
    2fc3:	48 89 c7             	mov    %rax,%rdi
    2fc6:	e8 a1 05 00 00       	callq  356c <_ZNSt6vectorIiSaIiEED1Ev>
    2fcb:	b8 00 00 00 00       	mov    $0x0,%eax
    2fd0:	48 8b 4d e8          	mov    -0x18(%rbp),%rcx
    2fd4:	64 48 33 0c 25 28 00 	xor    %fs:0x28,%rcx
    2fdb:	00 00 
    2fdd:	0f 84 8b 00 00 00    	je     306e <main+0x28d>
    2fe3:	e9 81 00 00 00       	jmpq   3069 <main+0x288>
    2fe8:	49 89 c4             	mov    %rax,%r12
    2feb:	be 20 00 00 00       	mov    $0x20,%esi
    2ff0:	48 89 df             	mov    %rbx,%rdi
    2ff3:	e8 48 f1 ff ff       	callq  2140 <_ZdlPvm@plt>
    2ff8:	4c 89 e0             	mov    %r12,%rax
    2ffb:	48 89 c7             	mov    %rax,%rdi
    2ffe:	e8 2d f2 ff ff       	callq  2230 <_Unwind_Resume@plt>
    3003:	49 89 c4             	mov    %rax,%r12
    3006:	be 20 00 00 00       	mov    $0x20,%esi
    300b:	48 89 df             	mov    %rbx,%rdi
    300e:	e8 2d f1 ff ff       	callq  2140 <_ZdlPvm@plt>
    3013:	4c 89 e0             	mov    %r12,%rax
    3016:	48 89 c7             	mov    %rax,%rdi
    3019:	e8 12 f2 ff ff       	callq  2230 <_Unwind_Resume@plt>
    301e:	48 89 c3             	mov    %rax,%rbx
    3021:	48 8d 45 c0          	lea    -0x40(%rbp),%rax
    3025:	48 89 c7             	mov    %rax,%rdi
    3028:	e8 83 f0 ff ff       	callq  20b0 <_ZNSt7__cxx1112basic_stringIcSt11char_traitsIcESaIcEED1Ev@plt>
    302d:	eb 03                	jmp    3032 <main+0x251>
    302f:	48 89 c3             	mov    %rax,%rbx
    3032:	48 8d 45 a0          	lea    -0x60(%rbp),%rax
    3036:	48 89 c7             	mov    %rax,%rdi
    3039:	e8 72 f0 ff ff       	callq  20b0 <_ZNSt7__cxx1112basic_stringIcSt11char_traitsIcESaIcEED1Ev@plt>
    303e:	eb 03                	jmp    3043 <main+0x262>
    3040:	48 89 c3             	mov    %rax,%rbx
    3043:	48 8d 85 74 ff ff ff 	lea    -0x8c(%rbp),%rax
    304a:	48 89 c7             	mov    %rax,%rdi
    304d:	e8 0e f1 ff ff       	callq  2160 <_ZNSaIcED1Ev@plt>
    3052:	48 8d 45 80          	lea    -0x80(%rbp),%rax
    3056:	48 89 c7             	mov    %rax,%rdi
    3059:	e8 0e 05 00 00       	callq  356c <_ZNSt6vectorIiSaIiEED1Ev>
    305e:	48 89 d8             	mov    %rbx,%rax
    3061:	48 89 c7             	mov    %rax,%rdi
    3064:	e8 c7 f1 ff ff       	callq  2230 <_Unwind_Resume@plt>
    3069:	e8 02 f1 ff ff       	callq  2170 <__stack_chk_fail@plt>
    306e:	48 83 ec 80          	sub    $0xffffffffffffff80,%rsp
    3072:	5b                   	pop    %rbx
    3073:	41 5c                	pop    %r12
    3075:	5d                   	pop    %rbp
    3076:	c3                   	retq   

0000000000003077 <_Z41__static_initialization_and_destruction_0ii>:
    3077:	55                   	push   %rbp
    3078:	48 89 e5             	mov    %rsp,%rbp
    307b:	48 83 ec 10          	sub    $0x10,%rsp
    307f:	89 7d fc             	mov    %edi,-0x4(%rbp)
    3082:	89 75 f8             	mov    %esi,-0x8(%rbp)
    3085:	83 7d fc 01          	cmpl   $0x1,-0x4(%rbp)
    3089:	75 32                	jne    30bd <_Z41__static_initialization_and_destruction_0ii+0x46>
    308b:	81 7d f8 ff ff 00 00 	cmpl   $0xffff,-0x8(%rbp)
    3092:	75 29                	jne    30bd <_Z41__static_initialization_and_destruction_0ii+0x46>
    3094:	48 8d 3d fe 72 00 00 	lea    0x72fe(%rip),%rdi        # a399 <_ZStL8__ioinit>
    309b:	e8 50 f1 ff ff       	callq  21f0 <_ZNSt8ios_base4InitC1Ev@plt>
    30a0:	48 8d 15 a1 70 00 00 	lea    0x70a1(%rip),%rdx        # a148 <__dso_handle>
    30a7:	48 8d 35 eb 72 00 00 	lea    0x72eb(%rip),%rsi        # a399 <_ZStL8__ioinit>
    30ae:	48 8b 05 43 6f 00 00 	mov    0x6f43(%rip),%rax        # 9ff8 <_ZNSt8ios_base4InitD1Ev@GLIBCXX_3.4>
    30b5:	48 89 c7             	mov    %rax,%rdi
    30b8:	e8 23 f0 ff ff       	callq  20e0 <__cxa_atexit@plt>
    30bd:	90                   	nop
    30be:	c9                   	leaveq 
    30bf:	c3                   	retq   

00000000000030c0 <_GLOBAL__sub_I__Z15getRandomStringB5cxx11v>:
    30c0:	55                   	push   %rbp
    30c1:	48 89 e5             	mov    %rsp,%rbp
    30c4:	be ff ff 00 00       	mov    $0xffff,%esi
    30c9:	bf 01 00 00 00       	mov    $0x1,%edi
    30ce:	e8 a4 ff ff ff       	callq  3077 <_Z41__static_initialization_and_destruction_0ii>
    30d3:	5d                   	pop    %rbp
    30d4:	c3                   	retq   

00000000000030d5 <_ZnwmPv>:
    30d5:	55                   	push   %rbp
    30d6:	48 89 e5             	mov    %rsp,%rbp
    30d9:	48 89 7d f8          	mov    %rdi,-0x8(%rbp)
    30dd:	48 89 75 f0          	mov    %rsi,-0x10(%rbp)
    30e1:	48 8b 45 f0          	mov    -0x10(%rbp),%rax
    30e5:	5d                   	pop    %rbp
    30e6:	c3                   	retq   

00000000000030e7 <_ZNSt11char_traitsIcE7compareEPKcS2_m>:
    30e7:	55                   	push   %rbp
    30e8:	48 89 e5             	mov    %rsp,%rbp
    30eb:	48 83 ec 20          	sub    $0x20,%rsp
    30ef:	48 89 7d f8          	mov    %rdi,-0x8(%rbp)
    30f3:	48 89 75 f0          	mov    %rsi,-0x10(%rbp)
    30f7:	48 89 55 e8          	mov    %rdx,-0x18(%rbp)
    30fb:	48 83 7d e8 00       	cmpq   $0x0,-0x18(%rbp)
    3100:	75 07                	jne    3109 <_ZNSt11char_traitsIcE7compareEPKcS2_m+0x22>
    3102:	b8 00 00 00 00       	mov    $0x0,%eax
    3107:	eb 18                	jmp    3121 <_ZNSt11char_traitsIcE7compareEPKcS2_m+0x3a>
    3109:	48 8b 55 e8          	mov    -0x18(%rbp),%rdx
    310d:	48 8b 4d f0          	mov    -0x10(%rbp),%rcx
    3111:	48 8b 45 f8          	mov    -0x8(%rbp),%rax
    3115:	48 89 ce             	mov    %rcx,%rsi
    3118:	48 89 c7             	mov    %rax,%rdi
    311b:	e8 60 ef ff ff       	callq  2080 <memcmp@plt>
    3120:	90                   	nop
    3121:	c9                   	leaveq 
    3122:	c3                   	retq   
    3123:	90                   	nop

0000000000003124 <_ZNSt12_Vector_baseISt4pairImjESaIS1_EE12_Vector_implD1Ev>:
    3124:	55                   	push   %rbp
    3125:	48 89 e5             	mov    %rsp,%rbp
    3128:	48 83 ec 10          	sub    $0x10,%rsp
    312c:	48 89 7d f8          	mov    %rdi,-0x8(%rbp)
    3130:	48 8b 45 f8          	mov    -0x8(%rbp),%rax
    3134:	48 89 c7             	mov    %rax,%rdi
    3137:	e8 3c 01 00 00       	callq  3278 <_ZNSaISt4pairImjEED1Ev>
    313c:	90                   	nop
    313d:	c9                   	leaveq 
    313e:	c3                   	retq   
    313f:	90                   	nop

0000000000003140 <_ZNSt12_Vector_baseISt4pairImjESaIS1_EEC1Ev>:
    3140:	55                   	push   %rbp
    3141:	48 89 e5             	mov    %rsp,%rbp
    3144:	48 83 ec 10          	sub    $0x10,%rsp
    3148:	48 89 7d f8          	mov    %rdi,-0x8(%rbp)
    314c:	48 8b 45 f8          	mov    -0x8(%rbp),%rax
    3150:	48 89 c7             	mov    %rax,%rdi
    3153:	e8 f8 00 00 00       	callq  3250 <_ZNSt12_Vector_baseISt4pairImjESaIS1_EE12_Vector_implC1Ev>
    3158:	90                   	nop
    3159:	c9                   	leaveq 
    315a:	c3                   	retq   
    315b:	90                   	nop

000000000000315c <_ZNSt6vectorISt4pairImjESaIS1_EEC1Ev>:
    315c:	55                   	push   %rbp
    315d:	48 89 e5             	mov    %rsp,%rbp
    3160:	48 83 ec 10          	sub    $0x10,%rsp
    3164:	48 89 7d f8          	mov    %rdi,-0x8(%rbp)
    3168:	48 8b 45 f8          	mov    -0x8(%rbp),%rax
    316c:	48 89 c7             	mov    %rax,%rdi
    316f:	e8 cc ff ff ff       	callq  3140 <_ZNSt12_Vector_baseISt4pairImjESaIS1_EEC1Ev>
    3174:	90                   	nop
    3175:	c9                   	leaveq 
    3176:	c3                   	retq   
    3177:	90                   	nop

0000000000003178 <_ZNSt12_Vector_baseIiSaIiEE12_Vector_implD1Ev>:
    3178:	55                   	push   %rbp
    3179:	48 89 e5             	mov    %rsp,%rbp
    317c:	48 83 ec 10          	sub    $0x10,%rsp
    3180:	48 89 7d f8          	mov    %rdi,-0x8(%rbp)
    3184:	48 8b 45 f8          	mov    -0x8(%rbp),%rax
    3188:	48 89 c7             	mov    %rax,%rdi
    318b:	e8 72 03 00 00       	callq  3502 <_ZNSaIiED1Ev>
    3190:	90                   	nop
    3191:	c9                   	leaveq 
    3192:	c3                   	retq   
    3193:	90                   	nop

0000000000003194 <_ZNSt12_Vector_baseIiSaIiEEC1Ev>:
    3194:	55                   	push   %rbp
    3195:	48 89 e5             	mov    %rsp,%rbp
    3198:	48 83 ec 10          	sub    $0x10,%rsp
    319c:	48 89 7d f8          	mov    %rdi,-0x8(%rbp)
    31a0:	48 8b 45 f8          	mov    -0x8(%rbp),%rax
    31a4:	48 89 c7             	mov    %rax,%rdi
    31a7:	e8 2e 03 00 00       	callq  34da <_ZNSt12_Vector_baseIiSaIiEE12_Vector_implC1Ev>
    31ac:	90                   	nop
    31ad:	c9                   	leaveq 
    31ae:	c3                   	retq   
    31af:	90                   	nop

00000000000031b0 <_ZNSt6vectorIiSaIiEEC1Ev>:
    31b0:	55                   	push   %rbp
    31b1:	48 89 e5             	mov    %rsp,%rbp
    31b4:	48 83 ec 10          	sub    $0x10,%rsp
    31b8:	48 89 7d f8          	mov    %rdi,-0x8(%rbp)
    31bc:	48 8b 45 f8          	mov    -0x8(%rbp),%rax
    31c0:	48 89 c7             	mov    %rax,%rdi
    31c3:	e8 cc ff ff ff       	callq  3194 <_ZNSt12_Vector_baseIiSaIiEEC1Ev>
    31c8:	90                   	nop
    31c9:	c9                   	leaveq 
    31ca:	c3                   	retq   

00000000000031cb <_ZStplIcSt11char_traitsIcESaIcEENSt7__cxx1112basic_stringIT_T0_T1_EERKS8_PKS5_>:
    31cb:	55                   	push   %rbp
    31cc:	48 89 e5             	mov    %rsp,%rbp
    31cf:	53                   	push   %rbx
    31d0:	48 83 ec 38          	sub    $0x38,%rsp
    31d4:	48 89 7d d8          	mov    %rdi,-0x28(%rbp)
    31d8:	48 89 75 d0          	mov    %rsi,-0x30(%rbp)
    31dc:	48 89 55 c8          	mov    %rdx,-0x38(%rbp)
    31e0:	64 48 8b 04 25 28 00 	mov    %fs:0x28,%rax
    31e7:	00 00 
    31e9:	48 89 45 e8          	mov    %rax,-0x18(%rbp)
    31ed:	31 c0                	xor    %eax,%eax
    31ef:	48 8b 55 d0          	mov    -0x30(%rbp),%rdx
    31f3:	48 8b 45 d8          	mov    -0x28(%rbp),%rax
    31f7:	48 89 d6             	mov    %rdx,%rsi
    31fa:	48 89 c7             	mov    %rax,%rdi
    31fd:	e8 6e ee ff ff       	callq  2070 <_ZNSt7__cxx1112basic_stringIcSt11char_traitsIcESaIcEEC1ERKS4_@plt>
    3202:	48 8b 55 c8          	mov    -0x38(%rbp),%rdx
    3206:	48 8b 45 d8          	mov    -0x28(%rbp),%rax
    320a:	48 89 d6             	mov    %rdx,%rsi
    320d:	48 89 c7             	mov    %rax,%rdi
    3210:	e8 3b f0 ff ff       	callq  2250 <_ZNSt7__cxx1112basic_stringIcSt11char_traitsIcESaIcEE6appendEPKc@plt>
    3215:	eb 1a                	jmp    3231 <_ZStplIcSt11char_traitsIcESaIcEENSt7__cxx1112basic_stringIT_T0_T1_EERKS8_PKS5_+0x66>
    3217:	48 89 c3             	mov    %rax,%rbx
    321a:	48 8b 45 d8          	mov    -0x28(%rbp),%rax
    321e:	48 89 c7             	mov    %rax,%rdi
    3221:	e8 8a ee ff ff       	callq  20b0 <_ZNSt7__cxx1112basic_stringIcSt11char_traitsIcESaIcEED1Ev@plt>
    3226:	48 89 d8             	mov    %rbx,%rax
    3229:	48 89 c7             	mov    %rax,%rdi
    322c:	e8 ff ef ff ff       	callq  2230 <_Unwind_Resume@plt>
    3231:	48 8b 45 e8          	mov    -0x18(%rbp),%rax
    3235:	64 48 33 04 25 28 00 	xor    %fs:0x28,%rax
    323c:	00 00 
    323e:	74 05                	je     3245 <_ZStplIcSt11char_traitsIcESaIcEENSt7__cxx1112basic_stringIT_T0_T1_EERKS8_PKS5_+0x7a>
    3240:	e8 2b ef ff ff       	callq  2170 <__stack_chk_fail@plt>
    3245:	48 8b 45 d8          	mov    -0x28(%rbp),%rax
    3249:	48 83 c4 38          	add    $0x38,%rsp
    324d:	5b                   	pop    %rbx
    324e:	5d                   	pop    %rbp
    324f:	c3                   	retq   

0000000000003250 <_ZNSt12_Vector_baseISt4pairImjESaIS1_EE12_Vector_implC1Ev>:
    3250:	55                   	push   %rbp
    3251:	48 89 e5             	mov    %rsp,%rbp
    3254:	48 83 ec 10          	sub    $0x10,%rsp
    3258:	48 89 7d f8          	mov    %rdi,-0x8(%rbp)
    325c:	48 8b 45 f8          	mov    -0x8(%rbp),%rax
    3260:	48 89 c7             	mov    %rax,%rdi
    3263:	e8 64 05 00 00       	callq  37cc <_ZNSaISt4pairImjEEC1Ev>
    3268:	48 8b 45 f8          	mov    -0x8(%rbp),%rax
    326c:	48 89 c7             	mov    %rax,%rdi
    326f:	e8 74 05 00 00       	callq  37e8 <_ZNSt12_Vector_baseISt4pairImjESaIS1_EE17_Vector_impl_dataC1Ev>
    3274:	90                   	nop
    3275:	c9                   	leaveq 
    3276:	c3                   	retq   
    3277:	90                   	nop

0000000000003278 <_ZNSaISt4pairImjEED1Ev>:
    3278:	55                   	push   %rbp
    3279:	48 89 e5             	mov    %rsp,%rbp
    327c:	48 83 ec 10          	sub    $0x10,%rsp
    3280:	48 89 7d f8          	mov    %rdi,-0x8(%rbp)
    3284:	48 8b 45 f8          	mov    -0x8(%rbp),%rax
    3288:	48 89 c7             	mov    %rax,%rdi
    328b:	e8 86 05 00 00       	callq  3816 <_ZN9__gnu_cxx13new_allocatorISt4pairImjEED1Ev>
    3290:	90                   	nop
    3291:	c9                   	leaveq 
    3292:	c3                   	retq   
    3293:	90                   	nop

0000000000003294 <_ZNSt12_Vector_baseISt4pairImjESaIS1_EED1Ev>:
    3294:	55                   	push   %rbp
    3295:	48 89 e5             	mov    %rsp,%rbp
    3298:	48 83 ec 10          	sub    $0x10,%rsp
    329c:	48 89 7d f8          	mov    %rdi,-0x8(%rbp)
    32a0:	48 8b 45 f8          	mov    -0x8(%rbp),%rax
    32a4:	48 8b 50 10          	mov    0x10(%rax),%rdx
    32a8:	48 8b 45 f8          	mov    -0x8(%rbp),%rax
    32ac:	48 8b 00             	mov    (%rax),%rax
    32af:	48 29 c2             	sub    %rax,%rdx
    32b2:	48 89 d0             	mov    %rdx,%rax
    32b5:	48 c1 f8 04          	sar    $0x4,%rax
    32b9:	48 89 c2             	mov    %rax,%rdx
    32bc:	48 8b 45 f8          	mov    -0x8(%rbp),%rax
    32c0:	48 8b 08             	mov    (%rax),%rcx
    32c3:	48 8b 45 f8          	mov    -0x8(%rbp),%rax
    32c7:	48 89 ce             	mov    %rcx,%rsi
    32ca:	48 89 c7             	mov    %rax,%rdi
    32cd:	e8 50 05 00 00       	callq  3822 <_ZNSt12_Vector_baseISt4pairImjESaIS1_EE13_M_deallocateEPS1_m>
    32d2:	48 8b 45 f8          	mov    -0x8(%rbp),%rax
    32d6:	48 89 c7             	mov    %rax,%rdi
    32d9:	e8 46 fe ff ff       	callq  3124 <_ZNSt12_Vector_baseISt4pairImjESaIS1_EE12_Vector_implD1Ev>
    32de:	90                   	nop
    32df:	c9                   	leaveq 
    32e0:	c3                   	retq   
    32e1:	90                   	nop

00000000000032e2 <_ZNSt6vectorISt4pairImjESaIS1_EED1Ev>:
    32e2:	55                   	push   %rbp
    32e3:	48 89 e5             	mov    %rsp,%rbp
    32e6:	48 83 ec 10          	sub    $0x10,%rsp
    32ea:	48 89 7d f8          	mov    %rdi,-0x8(%rbp)
    32ee:	48 8b 45 f8          	mov    -0x8(%rbp),%rax
    32f2:	48 89 c7             	mov    %rax,%rdi
    32f5:	e8 5e 05 00 00       	callq  3858 <_ZNSt12_Vector_baseISt4pairImjESaIS1_EE19_M_get_Tp_allocatorEv>
    32fa:	48 89 c2             	mov    %rax,%rdx
    32fd:	48 8b 45 f8          	mov    -0x8(%rbp),%rax
    3301:	48 8b 48 08          	mov    0x8(%rax),%rcx
    3305:	48 8b 45 f8          	mov    -0x8(%rbp),%rax
    3309:	48 8b 00             	mov    (%rax),%rax
    330c:	48 89 ce             	mov    %rcx,%rsi
    330f:	48 89 c7             	mov    %rax,%rdi
    3312:	e8 4f 05 00 00       	callq  3866 <_ZSt8_DestroyIPSt4pairImjES1_EvT_S3_RSaIT0_E>
    3317:	48 8b 45 f8          	mov    -0x8(%rbp),%rax
    331b:	48 89 c7             	mov    %rax,%rdi
    331e:	e8 71 ff ff ff       	callq  3294 <_ZNSt12_Vector_baseISt4pairImjESaIS1_EED1Ev>
    3323:	90                   	nop
    3324:	c9                   	leaveq 
    3325:	c3                   	retq   

0000000000003326 <_ZSt7forwardIRiEOT_RNSt16remove_referenceIS1_E4typeE>:
    3326:	55                   	push   %rbp
    3327:	48 89 e5             	mov    %rsp,%rbp
    332a:	48 89 7d f8          	mov    %rdi,-0x8(%rbp)
    332e:	48 8b 45 f8          	mov    -0x8(%rbp),%rax
    3332:	5d                   	pop    %rbp
    3333:	c3                   	retq   

0000000000003334 <_ZNSt4pairImjEC1ImRiLb1EEEOT_OT0_>:
    3334:	55                   	push   %rbp
    3335:	48 89 e5             	mov    %rsp,%rbp
    3338:	48 83 ec 20          	sub    $0x20,%rsp
    333c:	48 89 7d f8          	mov    %rdi,-0x8(%rbp)
    3340:	48 89 75 f0          	mov    %rsi,-0x10(%rbp)
    3344:	48 89 55 e8          	mov    %rdx,-0x18(%rbp)
    3348:	48 8b 45 f0          	mov    -0x10(%rbp),%rax
    334c:	48 89 c7             	mov    %rax,%rdi
    334f:	e8 3c 05 00 00       	callq  3890 <_ZSt7forwardImEOT_RNSt16remove_referenceIS0_E4typeE>
    3354:	48 8b 10             	mov    (%rax),%rdx
    3357:	48 8b 45 f8          	mov    -0x8(%rbp),%rax
    335b:	48 89 10             	mov    %rdx,(%rax)
    335e:	48 8b 45 e8          	mov    -0x18(%rbp),%rax
    3362:	48 89 c7             	mov    %rax,%rdi
    3365:	e8 bc ff ff ff       	callq  3326 <_ZSt7forwardIRiEOT_RNSt16remove_referenceIS1_E4typeE>
    336a:	8b 00                	mov    (%rax),%eax
    336c:	89 c2                	mov    %eax,%edx
    336e:	48 8b 45 f8          	mov    -0x8(%rbp),%rax
    3372:	89 50 08             	mov    %edx,0x8(%rax)
    3375:	90                   	nop
    3376:	c9                   	leaveq 
    3377:	c3                   	retq   

0000000000003378 <_ZNSt6vectorISt4pairImjESaIS1_EE12emplace_backIJRS1_EEEvDpOT_>:
    3378:	55                   	push   %rbp
    3379:	48 89 e5             	mov    %rsp,%rbp
    337c:	53                   	push   %rbx
    337d:	48 83 ec 18          	sub    $0x18,%rsp
    3381:	48 89 7d e8          	mov    %rdi,-0x18(%rbp)
    3385:	48 89 75 e0          	mov    %rsi,-0x20(%rbp)
    3389:	48 8b 45 e8          	mov    -0x18(%rbp),%rax
    338d:	48 8b 50 08          	mov    0x8(%rax),%rdx
    3391:	48 8b 45 e8          	mov    -0x18(%rbp),%rax
    3395:	48 8b 40 10          	mov    0x10(%rax),%rax
    3399:	48 39 c2             	cmp    %rax,%rdx
    339c:	74 3c                	je     33da <_ZNSt6vectorISt4pairImjESaIS1_EE12emplace_backIJRS1_EEEvDpOT_+0x62>
    339e:	48 8b 45 e0          	mov    -0x20(%rbp),%rax
    33a2:	48 89 c7             	mov    %rax,%rdi
    33a5:	e8 f4 04 00 00       	callq  389e <_ZSt7forwardIRSt4pairImjEEOT_RNSt16remove_referenceIS3_E4typeE>
    33aa:	48 89 c2             	mov    %rax,%rdx
    33ad:	48 8b 45 e8          	mov    -0x18(%rbp),%rax
    33b1:	48 8b 48 08          	mov    0x8(%rax),%rcx
    33b5:	48 8b 45 e8          	mov    -0x18(%rbp),%rax
    33b9:	48 89 ce             	mov    %rcx,%rsi
    33bc:	48 89 c7             	mov    %rax,%rdi
    33bf:	e8 e8 04 00 00       	callq  38ac <_ZNSt16allocator_traitsISaISt4pairImjEEE9constructIS1_JRS1_EEEvRS2_PT_DpOT0_>
    33c4:	48 8b 45 e8          	mov    -0x18(%rbp),%rax
    33c8:	48 8b 40 08          	mov    0x8(%rax),%rax
    33cc:	48 8d 50 10          	lea    0x10(%rax),%rdx
    33d0:	48 8b 45 e8          	mov    -0x18(%rbp),%rax
    33d4:	48 89 50 08          	mov    %rdx,0x8(%rax)
    33d8:	eb 30                	jmp    340a <_ZNSt6vectorISt4pairImjESaIS1_EE12emplace_backIJRS1_EEEvDpOT_+0x92>
    33da:	48 8b 45 e0          	mov    -0x20(%rbp),%rax
    33de:	48 89 c7             	mov    %rax,%rdi
    33e1:	e8 b8 04 00 00       	callq  389e <_ZSt7forwardIRSt4pairImjEEOT_RNSt16remove_referenceIS3_E4typeE>
    33e6:	48 89 c3             	mov    %rax,%rbx
    33e9:	48 8b 45 e8          	mov    -0x18(%rbp),%rax
    33ed:	48 89 c7             	mov    %rax,%rdi
    33f0:	e8 f1 04 00 00       	callq  38e6 <_ZNSt6vectorISt4pairImjESaIS1_EE3endEv>
    33f5:	48 89 c1             	mov    %rax,%rcx
    33f8:	48 8b 45 e8          	mov    -0x18(%rbp),%rax
    33fc:	48 89 da             	mov    %rbx,%rdx
    33ff:	48 89 ce             	mov    %rcx,%rsi
    3402:	48 89 c7             	mov    %rax,%rdi
    3405:	e8 66 05 00 00       	callq  3970 <_ZNSt6vectorISt4pairImjESaIS1_EE17_M_realloc_insertIJRS1_EEEvN9__gnu_cxx17__normal_iteratorIPS1_S3_EEDpOT_>
    340a:	90                   	nop
    340b:	48 83 c4 18          	add    $0x18,%rsp
    340f:	5b                   	pop    %rbx
    3410:	5d                   	pop    %rbp
    3411:	c3                   	retq   

0000000000003412 <_ZNKSt6vectorISt4pairImjESaIS1_EE4sizeEv>:
    3412:	55                   	push   %rbp
    3413:	48 89 e5             	mov    %rsp,%rbp
    3416:	48 89 7d f8          	mov    %rdi,-0x8(%rbp)
    341a:	48 8b 45 f8          	mov    -0x8(%rbp),%rax
    341e:	48 8b 50 08          	mov    0x8(%rax),%rdx
    3422:	48 8b 45 f8          	mov    -0x8(%rbp),%rax
    3426:	48 8b 00             	mov    (%rax),%rax
    3429:	48 29 c2             	sub    %rax,%rdx
    342c:	48 89 d0             	mov    %rdx,%rax
    342f:	48 c1 f8 04          	sar    $0x4,%rax
    3433:	5d                   	pop    %rbp
    3434:	c3                   	retq   
    3435:	90                   	nop

0000000000003436 <_ZNSt6vectorISt4pairImjESaIS1_EEixEm>:
    3436:	55                   	push   %rbp
    3437:	48 89 e5             	mov    %rsp,%rbp
    343a:	48 89 7d f8          	mov    %rdi,-0x8(%rbp)
    343e:	48 89 75 f0          	mov    %rsi,-0x10(%rbp)
    3442:	48 8b 45 f8          	mov    -0x8(%rbp),%rax
    3446:	48 8b 00             	mov    (%rax),%rax
    3449:	48 8b 55 f0          	mov    -0x10(%rbp),%rdx
    344d:	48 c1 e2 04          	shl    $0x4,%rdx
    3451:	48 01 d0             	add    %rdx,%rax
    3454:	5d                   	pop    %rbp
    3455:	c3                   	retq   

0000000000003456 <_ZSteqIcEN9__gnu_cxx11__enable_ifIXsrSt9__is_charIT_E7__valueEbE6__typeERKNSt7__cxx1112basic_stringIS3_St11char_traitsIS3_ESaIS3_EEESE_>:
    3456:	55                   	push   %rbp
    3457:	48 89 e5             	mov    %rsp,%rbp
    345a:	41 54                	push   %r12
    345c:	53                   	push   %rbx
    345d:	48 83 ec 10          	sub    $0x10,%rsp
    3461:	48 89 7d e8          	mov    %rdi,-0x18(%rbp)
    3465:	48 89 75 e0          	mov    %rsi,-0x20(%rbp)
    3469:	48 8b 45 e8          	mov    -0x18(%rbp),%rax
    346d:	48 89 c7             	mov    %rax,%rdi
    3470:	e8 5b ec ff ff       	callq  20d0 <_ZNKSt7__cxx1112basic_stringIcSt11char_traitsIcESaIcEE4sizeEv@plt>
    3475:	48 89 c3             	mov    %rax,%rbx
    3478:	48 8b 45 e0          	mov    -0x20(%rbp),%rax
    347c:	48 89 c7             	mov    %rax,%rdi
    347f:	e8 4c ec ff ff       	callq  20d0 <_ZNKSt7__cxx1112basic_stringIcSt11char_traitsIcESaIcEE4sizeEv@plt>
    3484:	48 39 c3             	cmp    %rax,%rbx
    3487:	75 43                	jne    34cc <_ZSteqIcEN9__gnu_cxx11__enable_ifIXsrSt9__is_charIT_E7__valueEbE6__typeERKNSt7__cxx1112basic_stringIS3_St11char_traitsIS3_ESaIS3_EEESE_+0x76>
    3489:	48 8b 45 e8          	mov    -0x18(%rbp),%rax
    348d:	48 89 c7             	mov    %rax,%rdi
    3490:	e8 3b ec ff ff       	callq  20d0 <_ZNKSt7__cxx1112basic_stringIcSt11char_traitsIcESaIcEE4sizeEv@plt>
    3495:	49 89 c4             	mov    %rax,%r12
    3498:	48 8b 45 e0          	mov    -0x20(%rbp),%rax
    349c:	48 89 c7             	mov    %rax,%rdi
    349f:	e8 fc ec ff ff       	callq  21a0 <_ZNKSt7__cxx1112basic_stringIcSt11char_traitsIcESaIcEE4dataEv@plt>
    34a4:	48 89 c3             	mov    %rax,%rbx
    34a7:	48 8b 45 e8          	mov    -0x18(%rbp),%rax
    34ab:	48 89 c7             	mov    %rax,%rdi
    34ae:	e8 ed ec ff ff       	callq  21a0 <_ZNKSt7__cxx1112basic_stringIcSt11char_traitsIcESaIcEE4dataEv@plt>
    34b3:	4c 89 e2             	mov    %r12,%rdx
    34b6:	48 89 de             	mov    %rbx,%rsi
    34b9:	48 89 c7             	mov    %rax,%rdi
    34bc:	e8 26 fc ff ff       	callq  30e7 <_ZNSt11char_traitsIcE7compareEPKcS2_m>
    34c1:	85 c0                	test   %eax,%eax
    34c3:	75 07                	jne    34cc <_ZSteqIcEN9__gnu_cxx11__enable_ifIXsrSt9__is_charIT_E7__valueEbE6__typeERKNSt7__cxx1112basic_stringIS3_St11char_traitsIS3_ESaIS3_EEESE_+0x76>
    34c5:	b8 01 00 00 00       	mov    $0x1,%eax
    34ca:	eb 05                	jmp    34d1 <_ZSteqIcEN9__gnu_cxx11__enable_ifIXsrSt9__is_charIT_E7__valueEbE6__typeERKNSt7__cxx1112basic_stringIS3_St11char_traitsIS3_ESaIS3_EEESE_+0x7b>
    34cc:	b8 00 00 00 00       	mov    $0x0,%eax
    34d1:	48 83 c4 10          	add    $0x10,%rsp
    34d5:	5b                   	pop    %rbx
    34d6:	41 5c                	pop    %r12
    34d8:	5d                   	pop    %rbp
    34d9:	c3                   	retq   

00000000000034da <_ZNSt12_Vector_baseIiSaIiEE12_Vector_implC1Ev>:
    34da:	55                   	push   %rbp
    34db:	48 89 e5             	mov    %rsp,%rbp
    34de:	48 83 ec 10          	sub    $0x10,%rsp
    34e2:	48 89 7d f8          	mov    %rdi,-0x8(%rbp)
    34e6:	48 8b 45 f8          	mov    -0x8(%rbp),%rax
    34ea:	48 89 c7             	mov    %rax,%rdi
    34ed:	e8 66 07 00 00       	callq  3c58 <_ZNSaIiEC1Ev>
    34f2:	48 8b 45 f8          	mov    -0x8(%rbp),%rax
    34f6:	48 89 c7             	mov    %rax,%rdi
    34f9:	e8 76 07 00 00       	callq  3c74 <_ZNSt12_Vector_baseIiSaIiEE17_Vector_impl_dataC1Ev>
    34fe:	90                   	nop
    34ff:	c9                   	leaveq 
    3500:	c3                   	retq   
    3501:	90                   	nop

0000000000003502 <_ZNSaIiED1Ev>:
    3502:	55                   	push   %rbp
    3503:	48 89 e5             	mov    %rsp,%rbp
    3506:	48 83 ec 10          	sub    $0x10,%rsp
    350a:	48 89 7d f8          	mov    %rdi,-0x8(%rbp)
    350e:	48 8b 45 f8          	mov    -0x8(%rbp),%rax
    3512:	48 89 c7             	mov    %rax,%rdi
    3515:	e8 88 07 00 00       	callq  3ca2 <_ZN9__gnu_cxx13new_allocatorIiED1Ev>
    351a:	90                   	nop
    351b:	c9                   	leaveq 
    351c:	c3                   	retq   
    351d:	90                   	nop

000000000000351e <_ZNSt12_Vector_baseIiSaIiEED1Ev>:
    351e:	55                   	push   %rbp
    351f:	48 89 e5             	mov    %rsp,%rbp
    3522:	48 83 ec 10          	sub    $0x10,%rsp
    3526:	48 89 7d f8          	mov    %rdi,-0x8(%rbp)
    352a:	48 8b 45 f8          	mov    -0x8(%rbp),%rax
    352e:	48 8b 50 10          	mov    0x10(%rax),%rdx
    3532:	48 8b 45 f8          	mov    -0x8(%rbp),%rax
    3536:	48 8b 00             	mov    (%rax),%rax
    3539:	48 29 c2             	sub    %rax,%rdx
    353c:	48 89 d0             	mov    %rdx,%rax
    353f:	48 c1 f8 02          	sar    $0x2,%rax
    3543:	48 89 c2             	mov    %rax,%rdx
    3546:	48 8b 45 f8          	mov    -0x8(%rbp),%rax
    354a:	48 8b 08             	mov    (%rax),%rcx
    354d:	48 8b 45 f8          	mov    -0x8(%rbp),%rax
    3551:	48 89 ce             	mov    %rcx,%rsi
    3554:	48 89 c7             	mov    %rax,%rdi
    3557:	e8 52 07 00 00       	callq  3cae <_ZNSt12_Vector_baseIiSaIiEE13_M_deallocateEPim>
    355c:	48 8b 45 f8          	mov    -0x8(%rbp),%rax
    3560:	48 89 c7             	mov    %rax,%rdi
    3563:	e8 10 fc ff ff       	callq  3178 <_ZNSt12_Vector_baseIiSaIiEE12_Vector_implD1Ev>
    3568:	90                   	nop
    3569:	c9                   	leaveq 
    356a:	c3                   	retq   
    356b:	90                   	nop

000000000000356c <_ZNSt6vectorIiSaIiEED1Ev>:
    356c:	55                   	push   %rbp
    356d:	48 89 e5             	mov    %rsp,%rbp
    3570:	48 83 ec 10          	sub    $0x10,%rsp
    3574:	48 89 7d f8          	mov    %rdi,-0x8(%rbp)
    3578:	48 8b 45 f8          	mov    -0x8(%rbp),%rax
    357c:	48 89 c7             	mov    %rax,%rdi
    357f:	e8 60 07 00 00       	callq  3ce4 <_ZNSt12_Vector_baseIiSaIiEE19_M_get_Tp_allocatorEv>
    3584:	48 89 c2             	mov    %rax,%rdx
    3587:	48 8b 45 f8          	mov    -0x8(%rbp),%rax
    358b:	48 8b 48 08          	mov    0x8(%rax),%rcx
    358f:	48 8b 45 f8          	mov    -0x8(%rbp),%rax
    3593:	48 8b 00             	mov    (%rax),%rax
    3596:	48 89 ce             	mov    %rcx,%rsi
    3599:	48 89 c7             	mov    %rax,%rdi
    359c:	e8 51 07 00 00       	callq  3cf2 <_ZSt8_DestroyIPiiEvT_S1_RSaIT0_E>
    35a1:	48 8b 45 f8          	mov    -0x8(%rbp),%rax
    35a5:	48 89 c7             	mov    %rax,%rdi
    35a8:	e8 71 ff ff ff       	callq  351e <_ZNSt12_Vector_baseIiSaIiEED1Ev>
    35ad:	90                   	nop
    35ae:	c9                   	leaveq 
    35af:	c3                   	retq   

00000000000035b0 <_ZNSt6vectorIiSaIiEE12emplace_backIJjEEEvDpOT_>:
    35b0:	55                   	push   %rbp
    35b1:	48 89 e5             	mov    %rsp,%rbp
    35b4:	53                   	push   %rbx
    35b5:	48 83 ec 18          	sub    $0x18,%rsp
    35b9:	48 89 7d e8          	mov    %rdi,-0x18(%rbp)
    35bd:	48 89 75 e0          	mov    %rsi,-0x20(%rbp)
    35c1:	48 8b 45 e8          	mov    -0x18(%rbp),%rax
    35c5:	48 8b 50 08          	mov    0x8(%rax),%rdx
    35c9:	48 8b 45 e8          	mov    -0x18(%rbp),%rax
    35cd:	48 8b 40 10          	mov    0x10(%rax),%rax
    35d1:	48 39 c2             	cmp    %rax,%rdx
    35d4:	74 3c                	je     3612 <_ZNSt6vectorIiSaIiEE12emplace_backIJjEEEvDpOT_+0x62>
    35d6:	48 8b 45 e0          	mov    -0x20(%rbp),%rax
    35da:	48 89 c7             	mov    %rax,%rdi
    35dd:	e8 3a 07 00 00       	callq  3d1c <_ZSt7forwardIjEOT_RNSt16remove_referenceIS0_E4typeE>
    35e2:	48 89 c2             	mov    %rax,%rdx
    35e5:	48 8b 45 e8          	mov    -0x18(%rbp),%rax
    35e9:	48 8b 48 08          	mov    0x8(%rax),%rcx
    35ed:	48 8b 45 e8          	mov    -0x18(%rbp),%rax
    35f1:	48 89 ce             	mov    %rcx,%rsi
    35f4:	48 89 c7             	mov    %rax,%rdi
    35f7:	e8 2e 07 00 00       	callq  3d2a <_ZNSt16allocator_traitsISaIiEE9constructIiJjEEEvRS0_PT_DpOT0_>
    35fc:	48 8b 45 e8          	mov    -0x18(%rbp),%rax
    3600:	48 8b 40 08          	mov    0x8(%rax),%rax
    3604:	48 8d 50 04          	lea    0x4(%rax),%rdx
    3608:	48 8b 45 e8          	mov    -0x18(%rbp),%rax
    360c:	48 89 50 08          	mov    %rdx,0x8(%rax)
    3610:	eb 30                	jmp    3642 <_ZNSt6vectorIiSaIiEE12emplace_backIJjEEEvDpOT_+0x92>
    3612:	48 8b 45 e0          	mov    -0x20(%rbp),%rax
    3616:	48 89 c7             	mov    %rax,%rdi
    3619:	e8 fe 06 00 00       	callq  3d1c <_ZSt7forwardIjEOT_RNSt16remove_referenceIS0_E4typeE>
    361e:	48 89 c3             	mov    %rax,%rbx
    3621:	48 8b 45 e8          	mov    -0x18(%rbp),%rax
    3625:	48 89 c7             	mov    %rax,%rdi
    3628:	e8 37 07 00 00       	callq  3d64 <_ZNSt6vectorIiSaIiEE3endEv>
    362d:	48 89 c1             	mov    %rax,%rcx
    3630:	48 8b 45 e8          	mov    -0x18(%rbp),%rax
    3634:	48 89 da             	mov    %rbx,%rdx
    3637:	48 89 ce             	mov    %rcx,%rsi
    363a:	48 89 c7             	mov    %rax,%rdi
    363d:	e8 ac 07 00 00       	callq  3dee <_ZNSt6vectorIiSaIiEE17_M_realloc_insertIJjEEEvN9__gnu_cxx17__normal_iteratorIPiS1_EEDpOT_>
    3642:	90                   	nop
    3643:	48 83 c4 18          	add    $0x18,%rsp
    3647:	5b                   	pop    %rbx
    3648:	5d                   	pop    %rbp
    3649:	c3                   	retq   

000000000000364a <_ZNKSt6vectorIiSaIiEEixEm>:
    364a:	55                   	push   %rbp
    364b:	48 89 e5             	mov    %rsp,%rbp
    364e:	48 89 7d f8          	mov    %rdi,-0x8(%rbp)
    3652:	48 89 75 f0          	mov    %rsi,-0x10(%rbp)
    3656:	48 8b 45 f8          	mov    -0x8(%rbp),%rax
    365a:	48 8b 00             	mov    (%rax),%rax
    365d:	48 8b 55 f0          	mov    -0x10(%rbp),%rdx
    3661:	48 c1 e2 02          	shl    $0x2,%rdx
    3665:	48 01 d0             	add    %rdx,%rax
    3668:	5d                   	pop    %rbp
    3669:	c3                   	retq   

000000000000366a <_ZNSt6vectorIiSaIiEE6assignEmRKi>:
    366a:	55                   	push   %rbp
    366b:	48 89 e5             	mov    %rsp,%rbp
    366e:	48 83 ec 20          	sub    $0x20,%rsp
    3672:	48 89 7d f8          	mov    %rdi,-0x8(%rbp)
    3676:	48 89 75 f0          	mov    %rsi,-0x10(%rbp)
    367a:	48 89 55 e8          	mov    %rdx,-0x18(%rbp)
    367e:	48 8b 55 e8          	mov    -0x18(%rbp),%rdx
    3682:	48 8b 4d f0          	mov    -0x10(%rbp),%rcx
    3686:	48 8b 45 f8          	mov    -0x8(%rbp),%rax
    368a:	48 89 ce             	mov    %rcx,%rsi
    368d:	48 89 c7             	mov    %rax,%rdi
    3690:	e8 6b 0a 00 00       	callq  4100 <_ZNSt6vectorIiSaIiEE14_M_fill_assignEmRKi>
    3695:	90                   	nop
    3696:	c9                   	leaveq 
    3697:	c3                   	retq   

0000000000003698 <_ZNSt6vectorIiSaIiEEixEm>:
    3698:	55                   	push   %rbp
    3699:	48 89 e5             	mov    %rsp,%rbp
    369c:	48 89 7d f8          	mov    %rdi,-0x8(%rbp)
    36a0:	48 89 75 f0          	mov    %rsi,-0x10(%rbp)
    36a4:	48 8b 45 f8          	mov    -0x8(%rbp),%rax
    36a8:	48 8b 00             	mov    (%rax),%rax
    36ab:	48 8b 55 f0          	mov    -0x10(%rbp),%rdx
    36af:	48 c1 e2 02          	shl    $0x2,%rdx
    36b3:	48 01 d0             	add    %rdx,%rax
    36b6:	5d                   	pop    %rbp
    36b7:	c3                   	retq   

00000000000036b8 <_ZNSt6vectorIiSaIiEEC1ERKS1_>:
    36b8:	55                   	push   %rbp
    36b9:	48 89 e5             	mov    %rsp,%rbp
    36bc:	41 55                	push   %r13
    36be:	41 54                	push   %r12
    36c0:	53                   	push   %rbx
    36c1:	48 83 ec 28          	sub    $0x28,%rsp
    36c5:	48 89 7d c8          	mov    %rdi,-0x38(%rbp)
    36c9:	48 89 75 c0          	mov    %rsi,-0x40(%rbp)
    36cd:	64 48 8b 04 25 28 00 	mov    %fs:0x28,%rax
    36d4:	00 00 
    36d6:	48 89 45 d8          	mov    %rax,-0x28(%rbp)
    36da:	31 c0                	xor    %eax,%eax
    36dc:	48 8b 5d c8          	mov    -0x38(%rbp),%rbx
    36e0:	48 8b 45 c0          	mov    -0x40(%rbp),%rax
    36e4:	48 89 c7             	mov    %rax,%rdi
    36e7:	e8 e0 0b 00 00       	callq  42cc <_ZNKSt12_Vector_baseIiSaIiEE19_M_get_Tp_allocatorEv>
    36ec:	48 89 c2             	mov    %rax,%rdx
    36ef:	48 8d 45 d7          	lea    -0x29(%rbp),%rax
    36f3:	48 89 d6             	mov    %rdx,%rsi
    36f6:	48 89 c7             	mov    %rax,%rdi
    36f9:	e8 81 0b 00 00       	callq  427f <_ZN9__gnu_cxx14__alloc_traitsISaIiEiE17_S_select_on_copyERKS1_>
    36fe:	48 8b 45 c0          	mov    -0x40(%rbp),%rax
    3702:	48 89 c7             	mov    %rax,%rdi
    3705:	e8 52 0b 00 00       	callq  425c <_ZNKSt6vectorIiSaIiEE4sizeEv>
    370a:	48 89 c1             	mov    %rax,%rcx
    370d:	48 8d 45 d7          	lea    -0x29(%rbp),%rax
    3711:	48 89 c2             	mov    %rax,%rdx
    3714:	48 89 ce             	mov    %rcx,%rsi
    3717:	48 89 df             	mov    %rbx,%rdi
    371a:	e8 bb 0b 00 00       	callq  42da <_ZNSt12_Vector_baseIiSaIiEEC1EmRKS0_>
    371f:	48 8d 45 d7          	lea    -0x29(%rbp),%rax
    3723:	48 89 c7             	mov    %rax,%rdi
    3726:	e8 d7 fd ff ff       	callq  3502 <_ZNSaIiED1Ev>
    372b:	48 8b 45 c8          	mov    -0x38(%rbp),%rax
    372f:	48 89 c7             	mov    %rax,%rdi
    3732:	e8 ad 05 00 00       	callq  3ce4 <_ZNSt12_Vector_baseIiSaIiEE19_M_get_Tp_allocatorEv>
    3737:	49 89 c5             	mov    %rax,%r13
    373a:	48 8b 45 c8          	mov    -0x38(%rbp),%rax
    373e:	48 8b 18             	mov    (%rax),%rbx
    3741:	48 8b 45 c0          	mov    -0x40(%rbp),%rax
    3745:	48 89 c7             	mov    %rax,%rdi
    3748:	e8 3f 0c 00 00       	callq  438c <_ZNKSt6vectorIiSaIiEE3endEv>
    374d:	49 89 c4             	mov    %rax,%r12
    3750:	48 8b 45 c0          	mov    -0x40(%rbp),%rax
    3754:	48 89 c7             	mov    %rax,%rdi
    3757:	e8 dc 0b 00 00       	callq  4338 <_ZNKSt6vectorIiSaIiEE5beginEv>
    375c:	4c 89 e9             	mov    %r13,%rcx
    375f:	48 89 da             	mov    %rbx,%rdx
    3762:	4c 89 e6             	mov    %r12,%rsi
    3765:	48 89 c7             	mov    %rax,%rdi
    3768:	e8 73 0c 00 00       	callq  43e0 <_ZSt22__uninitialized_copy_aIN9__gnu_cxx17__normal_iteratorIPKiSt6vectorIiSaIiEEEEPiiET0_T_SA_S9_RSaIT1_E>
    376d:	48 8b 55 c8          	mov    -0x38(%rbp),%rdx
    3771:	48 89 42 08          	mov    %rax,0x8(%rdx)
    3775:	90                   	nop
    3776:	48 8b 45 d8          	mov    -0x28(%rbp),%rax
    377a:	64 48 33 04 25 28 00 	xor    %fs:0x28,%rax
    3781:	00 00 
    3783:	74 3b                	je     37c0 <_ZNSt6vectorIiSaIiEEC1ERKS1_+0x108>
    3785:	eb 34                	jmp    37bb <_ZNSt6vectorIiSaIiEEC1ERKS1_+0x103>
    3787:	48 89 c3             	mov    %rax,%rbx
    378a:	48 8d 45 d7          	lea    -0x29(%rbp),%rax
    378e:	48 89 c7             	mov    %rax,%rdi
    3791:	e8 6c fd ff ff       	callq  3502 <_ZNSaIiED1Ev>
    3796:	48 89 d8             	mov    %rbx,%rax
    3799:	48 89 c7             	mov    %rax,%rdi
    379c:	e8 8f ea ff ff       	callq  2230 <_Unwind_Resume@plt>
    37a1:	48 89 c3             	mov    %rax,%rbx
    37a4:	48 8b 45 c8          	mov    -0x38(%rbp),%rax
    37a8:	48 89 c7             	mov    %rax,%rdi
    37ab:	e8 6e fd ff ff       	callq  351e <_ZNSt12_Vector_baseIiSaIiEED1Ev>
    37b0:	48 89 d8             	mov    %rbx,%rax
    37b3:	48 89 c7             	mov    %rax,%rdi
    37b6:	e8 75 ea ff ff       	callq  2230 <_Unwind_Resume@plt>
    37bb:	e8 b0 e9 ff ff       	callq  2170 <__stack_chk_fail@plt>
    37c0:	48 83 c4 28          	add    $0x28,%rsp
    37c4:	5b                   	pop    %rbx
    37c5:	41 5c                	pop    %r12
    37c7:	41 5d                	pop    %r13
    37c9:	5d                   	pop    %rbp
    37ca:	c3                   	retq   
    37cb:	90                   	nop

00000000000037cc <_ZNSaISt4pairImjEEC1Ev>:
    37cc:	55                   	push   %rbp
    37cd:	48 89 e5             	mov    %rsp,%rbp
    37d0:	48 83 ec 10          	sub    $0x10,%rsp
    37d4:	48 89 7d f8          	mov    %rdi,-0x8(%rbp)
    37d8:	48 8b 45 f8          	mov    -0x8(%rbp),%rax
    37dc:	48 89 c7             	mov    %rax,%rdi
    37df:	e8 2e 0c 00 00       	callq  4412 <_ZN9__gnu_cxx13new_allocatorISt4pairImjEEC1Ev>
    37e4:	90                   	nop
    37e5:	c9                   	leaveq 
    37e6:	c3                   	retq   
    37e7:	90                   	nop

00000000000037e8 <_ZNSt12_Vector_baseISt4pairImjESaIS1_EE17_Vector_impl_dataC1Ev>:
    37e8:	55                   	push   %rbp
    37e9:	48 89 e5             	mov    %rsp,%rbp
    37ec:	48 89 7d f8          	mov    %rdi,-0x8(%rbp)
    37f0:	48 8b 45 f8          	mov    -0x8(%rbp),%rax
    37f4:	48 c7 00 00 00 00 00 	movq   $0x0,(%rax)
    37fb:	48 8b 45 f8          	mov    -0x8(%rbp),%rax
    37ff:	48 c7 40 08 00 00 00 	movq   $0x0,0x8(%rax)
    3806:	00 
    3807:	48 8b 45 f8          	mov    -0x8(%rbp),%rax
    380b:	48 c7 40 10 00 00 00 	movq   $0x0,0x10(%rax)
    3812:	00 
    3813:	90                   	nop
    3814:	5d                   	pop    %rbp
    3815:	c3                   	retq   

0000000000003816 <_ZN9__gnu_cxx13new_allocatorISt4pairImjEED1Ev>:
    3816:	55                   	push   %rbp
    3817:	48 89 e5             	mov    %rsp,%rbp
    381a:	48 89 7d f8          	mov    %rdi,-0x8(%rbp)
    381e:	90                   	nop
    381f:	5d                   	pop    %rbp
    3820:	c3                   	retq   
    3821:	90                   	nop

0000000000003822 <_ZNSt12_Vector_baseISt4pairImjESaIS1_EE13_M_deallocateEPS1_m>:
    3822:	55                   	push   %rbp
    3823:	48 89 e5             	mov    %rsp,%rbp
    3826:	48 83 ec 20          	sub    $0x20,%rsp
    382a:	48 89 7d f8          	mov    %rdi,-0x8(%rbp)
    382e:	48 89 75 f0          	mov    %rsi,-0x10(%rbp)
    3832:	48 89 55 e8          	mov    %rdx,-0x18(%rbp)
    3836:	48 83 7d f0 00       	cmpq   $0x0,-0x10(%rbp)
    383b:	74 17                	je     3854 <_ZNSt12_Vector_baseISt4pairImjESaIS1_EE13_M_deallocateEPS1_m+0x32>
    383d:	48 8b 45 f8          	mov    -0x8(%rbp),%rax
    3841:	48 8b 55 e8          	mov    -0x18(%rbp),%rdx
    3845:	48 8b 4d f0          	mov    -0x10(%rbp),%rcx
    3849:	48 89 ce             	mov    %rcx,%rsi
    384c:	48 89 c7             	mov    %rax,%rdi
    384f:	e8 c9 0b 00 00       	callq  441d <_ZNSt16allocator_traitsISaISt4pairImjEEE10deallocateERS2_PS1_m>
    3854:	90                   	nop
    3855:	c9                   	leaveq 
    3856:	c3                   	retq   
    3857:	90                   	nop

0000000000003858 <_ZNSt12_Vector_baseISt4pairImjESaIS1_EE19_M_get_Tp_allocatorEv>:
    3858:	55                   	push   %rbp
    3859:	48 89 e5             	mov    %rsp,%rbp
    385c:	48 89 7d f8          	mov    %rdi,-0x8(%rbp)
    3860:	48 8b 45 f8          	mov    -0x8(%rbp),%rax
    3864:	5d                   	pop    %rbp
    3865:	c3                   	retq   

0000000000003866 <_ZSt8_DestroyIPSt4pairImjES1_EvT_S3_RSaIT0_E>:
    3866:	55                   	push   %rbp
    3867:	48 89 e5             	mov    %rsp,%rbp
    386a:	48 83 ec 20          	sub    $0x20,%rsp
    386e:	48 89 7d f8          	mov    %rdi,-0x8(%rbp)
    3872:	48 89 75 f0          	mov    %rsi,-0x10(%rbp)
    3876:	48 89 55 e8          	mov    %rdx,-0x18(%rbp)
    387a:	48 8b 55 f0          	mov    -0x10(%rbp),%rdx
    387e:	48 8b 45 f8          	mov    -0x8(%rbp),%rax
    3882:	48 89 d6             	mov    %rdx,%rsi
    3885:	48 89 c7             	mov    %rax,%rdi
    3888:	e8 be 0b 00 00       	callq  444b <_ZSt8_DestroyIPSt4pairImjEEvT_S3_>
    388d:	90                   	nop
    388e:	c9                   	leaveq 
    388f:	c3                   	retq   

0000000000003890 <_ZSt7forwardImEOT_RNSt16remove_referenceIS0_E4typeE>:
    3890:	55                   	push   %rbp
    3891:	48 89 e5             	mov    %rsp,%rbp
    3894:	48 89 7d f8          	mov    %rdi,-0x8(%rbp)
    3898:	48 8b 45 f8          	mov    -0x8(%rbp),%rax
    389c:	5d                   	pop    %rbp
    389d:	c3                   	retq   

000000000000389e <_ZSt7forwardIRSt4pairImjEEOT_RNSt16remove_referenceIS3_E4typeE>:
    389e:	55                   	push   %rbp
    389f:	48 89 e5             	mov    %rsp,%rbp
    38a2:	48 89 7d f8          	mov    %rdi,-0x8(%rbp)
    38a6:	48 8b 45 f8          	mov    -0x8(%rbp),%rax
    38aa:	5d                   	pop    %rbp
    38ab:	c3                   	retq   

00000000000038ac <_ZNSt16allocator_traitsISaISt4pairImjEEE9constructIS1_JRS1_EEEvRS2_PT_DpOT0_>:
    38ac:	55                   	push   %rbp
    38ad:	48 89 e5             	mov    %rsp,%rbp
    38b0:	48 83 ec 20          	sub    $0x20,%rsp
    38b4:	48 89 7d f8          	mov    %rdi,-0x8(%rbp)
    38b8:	48 89 75 f0          	mov    %rsi,-0x10(%rbp)
    38bc:	48 89 55 e8          	mov    %rdx,-0x18(%rbp)
    38c0:	48 8b 45 e8          	mov    -0x18(%rbp),%rax
    38c4:	48 89 c7             	mov    %rax,%rdi
    38c7:	e8 d2 ff ff ff       	callq  389e <_ZSt7forwardIRSt4pairImjEEOT_RNSt16remove_referenceIS3_E4typeE>
    38cc:	48 89 c2             	mov    %rax,%rdx
    38cf:	48 8b 4d f0          	mov    -0x10(%rbp),%rcx
    38d3:	48 8b 45 f8          	mov    -0x8(%rbp),%rax
    38d7:	48 89 ce             	mov    %rcx,%rsi
    38da:	48 89 c7             	mov    %rax,%rdi
    38dd:	e8 90 0b 00 00       	callq  4472 <_ZN9__gnu_cxx13new_allocatorISt4pairImjEE9constructIS2_JRS2_EEEvPT_DpOT0_>
    38e2:	90                   	nop
    38e3:	c9                   	leaveq 
    38e4:	c3                   	retq   
    38e5:	90                   	nop

00000000000038e6 <_ZNSt6vectorISt4pairImjESaIS1_EE3endEv>:
    38e6:	55                   	push   %rbp
    38e7:	48 89 e5             	mov    %rsp,%rbp
    38ea:	48 83 ec 20          	sub    $0x20,%rsp
    38ee:	48 89 7d e8          	mov    %rdi,-0x18(%rbp)
    38f2:	64 48 8b 04 25 28 00 	mov    %fs:0x28,%rax
    38f9:	00 00 
    38fb:	48 89 45 f8          	mov    %rax,-0x8(%rbp)
    38ff:	31 c0                	xor    %eax,%eax
    3901:	48 8b 45 e8          	mov    -0x18(%rbp),%rax
    3905:	48 8d 50 08          	lea    0x8(%rax),%rdx
    3909:	48 8d 45 f0          	lea    -0x10(%rbp),%rax
    390d:	48 89 d6             	mov    %rdx,%rsi
    3910:	48 89 c7             	mov    %rax,%rdi
    3913:	e8 a8 0b 00 00       	callq  44c0 <_ZN9__gnu_cxx17__normal_iteratorIPSt4pairImjESt6vectorIS2_SaIS2_EEEC1ERKS3_>
    3918:	48 8b 45 f0          	mov    -0x10(%rbp),%rax
    391c:	48 8b 4d f8          	mov    -0x8(%rbp),%rcx
    3920:	64 48 33 0c 25 28 00 	xor    %fs:0x28,%rcx
    3927:	00 00 
    3929:	74 05                	je     3930 <_ZNSt6vectorISt4pairImjESaIS1_EE3endEv+0x4a>
    392b:	e8 40 e8 ff ff       	callq  2170 <__stack_chk_fail@plt>
    3930:	c9                   	leaveq 
    3931:	c3                   	retq   

0000000000003932 <_ZNSt6vectorISt4pairImjESaIS1_EE15_S_use_relocateEv>:
    3932:	55                   	push   %rbp
    3933:	48 89 e5             	mov    %rsp,%rbp
    3936:	48 83 ec 10          	sub    $0x10,%rsp
    393a:	64 48 8b 04 25 28 00 	mov    %fs:0x28,%rax
    3941:	00 00 
    3943:	48 89 45 f8          	mov    %rax,-0x8(%rbp)
    3947:	31 c0                	xor    %eax,%eax
    3949:	e8 16 00 00 00       	callq  3964 <_ZNSt6vectorISt4pairImjESaIS1_EE19_S_nothrow_relocateESt17integral_constantIbLb1EE>
    394e:	48 8b 55 f8          	mov    -0x8(%rbp),%rdx
    3952:	64 48 33 14 25 28 00 	xor    %fs:0x28,%rdx
    3959:	00 00 
    395b:	74 05                	je     3962 <_ZNSt6vectorISt4pairImjESaIS1_EE15_S_use_relocateEv+0x30>
    395d:	e8 0e e8 ff ff       	callq  2170 <__stack_chk_fail@plt>
    3962:	c9                   	leaveq 
    3963:	c3                   	retq   

0000000000003964 <_ZNSt6vectorISt4pairImjESaIS1_EE19_S_nothrow_relocateESt17integral_constantIbLb1EE>:
    3964:	55                   	push   %rbp
    3965:	48 89 e5             	mov    %rsp,%rbp
    3968:	b8 01 00 00 00       	mov    $0x1,%eax
    396d:	5d                   	pop    %rbp
    396e:	c3                   	retq   
    396f:	90                   	nop

0000000000003970 <_ZNSt6vectorISt4pairImjESaIS1_EE17_M_realloc_insertIJRS1_EEEvN9__gnu_cxx17__normal_iteratorIPS1_S3_EEDpOT_>:
    3970:	55                   	push   %rbp
    3971:	48 89 e5             	mov    %rsp,%rbp
    3974:	53                   	push   %rbx
    3975:	48 83 ec 68          	sub    $0x68,%rsp
    3979:	48 89 7d a8          	mov    %rdi,-0x58(%rbp)
    397d:	48 89 75 a0          	mov    %rsi,-0x60(%rbp)
    3981:	48 89 55 98          	mov    %rdx,-0x68(%rbp)
    3985:	64 48 8b 04 25 28 00 	mov    %fs:0x28,%rax
    398c:	00 00 
    398e:	48 89 45 e8          	mov    %rax,-0x18(%rbp)
    3992:	31 c0                	xor    %eax,%eax
    3994:	48 8b 45 a8          	mov    -0x58(%rbp),%rax
    3998:	48 8d 15 89 27 00 00 	lea    0x2789(%rip),%rdx        # 6128 <_ZStL19piecewise_construct+0x120>
    399f:	be 01 00 00 00       	mov    $0x1,%esi
    39a4:	48 89 c7             	mov    %rax,%rdi
    39a7:	e8 32 0b 00 00       	callq  44de <_ZNKSt6vectorISt4pairImjESaIS1_EE12_M_check_lenEmPKc>
    39ac:	48 89 45 c0          	mov    %rax,-0x40(%rbp)
    39b0:	48 8b 45 a8          	mov    -0x58(%rbp),%rax
    39b4:	48 8b 00             	mov    (%rax),%rax
    39b7:	48 89 45 c8          	mov    %rax,-0x38(%rbp)
    39bb:	48 8b 45 a8          	mov    -0x58(%rbp),%rax
    39bf:	48 8b 40 08          	mov    0x8(%rax),%rax
    39c3:	48 89 45 d0          	mov    %rax,-0x30(%rbp)
    39c7:	48 8b 45 a8          	mov    -0x58(%rbp),%rax
    39cb:	48 89 c7             	mov    %rax,%rdi
    39ce:	e8 f7 0b 00 00       	callq  45ca <_ZNSt6vectorISt4pairImjESaIS1_EE5beginEv>
    39d3:	48 89 45 b0          	mov    %rax,-0x50(%rbp)
    39d7:	48 8d 55 b0          	lea    -0x50(%rbp),%rdx
    39db:	48 8d 45 a0          	lea    -0x60(%rbp),%rax
    39df:	48 89 d6             	mov    %rdx,%rsi
    39e2:	48 89 c7             	mov    %rax,%rdi
    39e5:	e8 28 0c 00 00       	callq  4612 <_ZN9__gnu_cxxmiIPSt4pairImjESt6vectorIS2_SaIS2_EEEENS_17__normal_iteratorIT_T0_E15difference_typeERKSA_SD_>
    39ea:	48 89 45 d8          	mov    %rax,-0x28(%rbp)
    39ee:	48 8b 45 a8          	mov    -0x58(%rbp),%rax
    39f2:	48 8b 55 c0          	mov    -0x40(%rbp),%rdx
    39f6:	48 89 d6             	mov    %rdx,%rsi
    39f9:	48 89 c7             	mov    %rax,%rdi
    39fc:	e8 51 0c 00 00       	callq  4652 <_ZNSt12_Vector_baseISt4pairImjESaIS1_EE11_M_allocateEm>
    3a01:	48 89 45 e0          	mov    %rax,-0x20(%rbp)
    3a05:	48 8b 45 e0          	mov    -0x20(%rbp),%rax
    3a09:	48 89 45 b8          	mov    %rax,-0x48(%rbp)
    3a0d:	48 8b 45 98          	mov    -0x68(%rbp),%rax
    3a11:	48 89 c7             	mov    %rax,%rdi
    3a14:	e8 85 fe ff ff       	callq  389e <_ZSt7forwardIRSt4pairImjEEOT_RNSt16remove_referenceIS3_E4typeE>
    3a19:	48 89 c2             	mov    %rax,%rdx
    3a1c:	48 8b 45 d8          	mov    -0x28(%rbp),%rax
    3a20:	48 c1 e0 04          	shl    $0x4,%rax
    3a24:	48 89 c1             	mov    %rax,%rcx
    3a27:	48 8b 45 e0          	mov    -0x20(%rbp),%rax
    3a2b:	48 01 c1             	add    %rax,%rcx
    3a2e:	48 8b 45 a8          	mov    -0x58(%rbp),%rax
    3a32:	48 89 ce             	mov    %rcx,%rsi
    3a35:	48 89 c7             	mov    %rax,%rdi
    3a38:	e8 6f fe ff ff       	callq  38ac <_ZNSt16allocator_traitsISaISt4pairImjEEE9constructIS1_JRS1_EEEvRS2_PT_DpOT0_>
    3a3d:	48 c7 45 b8 00 00 00 	movq   $0x0,-0x48(%rbp)
    3a44:	00 
    3a45:	e8 e8 fe ff ff       	callq  3932 <_ZNSt6vectorISt4pairImjESaIS1_EE15_S_use_relocateEv>
    3a4a:	84 c0                	test   %al,%al
    3a4c:	74 71                	je     3abf <_ZNSt6vectorISt4pairImjESaIS1_EE17_M_realloc_insertIJRS1_EEEvN9__gnu_cxx17__normal_iteratorIPS1_S3_EEDpOT_+0x14f>
    3a4e:	48 8b 45 a8          	mov    -0x58(%rbp),%rax
    3a52:	48 89 c7             	mov    %rax,%rdi
    3a55:	e8 fe fd ff ff       	callq  3858 <_ZNSt12_Vector_baseISt4pairImjESaIS1_EE19_M_get_Tp_allocatorEv>
    3a5a:	48 89 c3             	mov    %rax,%rbx
    3a5d:	48 8d 45 a0          	lea    -0x60(%rbp),%rax
    3a61:	48 89 c7             	mov    %rax,%rdi
    3a64:	e8 71 0c 00 00       	callq  46da <_ZNK9__gnu_cxx17__normal_iteratorIPSt4pairImjESt6vectorIS2_SaIS2_EEE4baseEv>
    3a69:	48 8b 30             	mov    (%rax),%rsi
    3a6c:	48 8b 55 e0          	mov    -0x20(%rbp),%rdx
    3a70:	48 8b 45 c8          	mov    -0x38(%rbp),%rax
    3a74:	48 89 d9             	mov    %rbx,%rcx
    3a77:	48 89 c7             	mov    %rax,%rdi
    3a7a:	e8 06 0c 00 00       	callq  4685 <_ZNSt6vectorISt4pairImjESaIS1_EE11_S_relocateEPS1_S4_S4_RS2_>
    3a7f:	48 89 45 b8          	mov    %rax,-0x48(%rbp)
    3a83:	48 83 45 b8 10       	addq   $0x10,-0x48(%rbp)
    3a88:	48 8b 45 a8          	mov    -0x58(%rbp),%rax
    3a8c:	48 89 c7             	mov    %rax,%rdi
    3a8f:	e8 c4 fd ff ff       	callq  3858 <_ZNSt12_Vector_baseISt4pairImjESaIS1_EE19_M_get_Tp_allocatorEv>
    3a94:	48 89 c3             	mov    %rax,%rbx
    3a97:	48 8d 45 a0          	lea    -0x60(%rbp),%rax
    3a9b:	48 89 c7             	mov    %rax,%rdi
    3a9e:	e8 37 0c 00 00       	callq  46da <_ZNK9__gnu_cxx17__normal_iteratorIPSt4pairImjESt6vectorIS2_SaIS2_EEE4baseEv>
    3aa3:	48 8b 00             	mov    (%rax),%rax
    3aa6:	48 8b 55 b8          	mov    -0x48(%rbp),%rdx
    3aaa:	48 8b 75 d0          	mov    -0x30(%rbp),%rsi
    3aae:	48 89 d9             	mov    %rbx,%rcx
    3ab1:	48 89 c7             	mov    %rax,%rdi
    3ab4:	e8 cc 0b 00 00       	callq  4685 <_ZNSt6vectorISt4pairImjESaIS1_EE11_S_relocateEPS1_S4_S4_RS2_>
    3ab9:	48 89 45 b8          	mov    %rax,-0x48(%rbp)
    3abd:	eb 6f                	jmp    3b2e <_ZNSt6vectorISt4pairImjESaIS1_EE17_M_realloc_insertIJRS1_EEEvN9__gnu_cxx17__normal_iteratorIPS1_S3_EEDpOT_+0x1be>
    3abf:	48 8b 45 a8          	mov    -0x58(%rbp),%rax
    3ac3:	48 89 c7             	mov    %rax,%rdi
    3ac6:	e8 8d fd ff ff       	callq  3858 <_ZNSt12_Vector_baseISt4pairImjESaIS1_EE19_M_get_Tp_allocatorEv>
    3acb:	48 89 c3             	mov    %rax,%rbx
    3ace:	48 8d 45 a0          	lea    -0x60(%rbp),%rax
    3ad2:	48 89 c7             	mov    %rax,%rdi
    3ad5:	e8 00 0c 00 00       	callq  46da <_ZNK9__gnu_cxx17__normal_iteratorIPSt4pairImjESt6vectorIS2_SaIS2_EEE4baseEv>
    3ada:	48 8b 30             	mov    (%rax),%rsi
    3add:	48 8b 55 e0          	mov    -0x20(%rbp),%rdx
    3ae1:	48 8b 45 c8          	mov    -0x38(%rbp),%rax
    3ae5:	48 89 d9             	mov    %rbx,%rcx
    3ae8:	48 89 c7             	mov    %rax,%rdi
    3aeb:	e8 f8 0b 00 00       	callq  46e8 <_ZSt34__uninitialized_move_if_noexcept_aIPSt4pairImjES2_SaIS1_EET0_T_S5_S4_RT1_>
    3af0:	48 89 45 b8          	mov    %rax,-0x48(%rbp)
    3af4:	48 83 45 b8 10       	addq   $0x10,-0x48(%rbp)
    3af9:	48 8b 45 a8          	mov    -0x58(%rbp),%rax
    3afd:	48 89 c7             	mov    %rax,%rdi
    3b00:	e8 53 fd ff ff       	callq  3858 <_ZNSt12_Vector_baseISt4pairImjESaIS1_EE19_M_get_Tp_allocatorEv>
    3b05:	48 89 c3             	mov    %rax,%rbx
    3b08:	48 8d 45 a0          	lea    -0x60(%rbp),%rax
    3b0c:	48 89 c7             	mov    %rax,%rdi
    3b0f:	e8 c6 0b 00 00       	callq  46da <_ZNK9__gnu_cxx17__normal_iteratorIPSt4pairImjESt6vectorIS2_SaIS2_EEE4baseEv>
    3b14:	48 8b 00             	mov    (%rax),%rax
    3b17:	48 8b 55 b8          	mov    -0x48(%rbp),%rdx
    3b1b:	48 8b 75 d0          	mov    -0x30(%rbp),%rsi
    3b1f:	48 89 d9             	mov    %rbx,%rcx
    3b22:	48 89 c7             	mov    %rax,%rdi
    3b25:	e8 be 0b 00 00       	callq  46e8 <_ZSt34__uninitialized_move_if_noexcept_aIPSt4pairImjES2_SaIS1_EET0_T_S5_S4_RT1_>
    3b2a:	48 89 45 b8          	mov    %rax,-0x48(%rbp)
    3b2e:	e8 ff fd ff ff       	callq  3932 <_ZNSt6vectorISt4pairImjESaIS1_EE15_S_use_relocateEv>
    3b33:	83 f0 01             	xor    $0x1,%eax
    3b36:	84 c0                	test   %al,%al
    3b38:	74 22                	je     3b5c <_ZNSt6vectorISt4pairImjESaIS1_EE17_M_realloc_insertIJRS1_EEEvN9__gnu_cxx17__normal_iteratorIPS1_S3_EEDpOT_+0x1ec>
    3b3a:	48 8b 45 a8          	mov    -0x58(%rbp),%rax
    3b3e:	48 89 c7             	mov    %rax,%rdi
    3b41:	e8 12 fd ff ff       	callq  3858 <_ZNSt12_Vector_baseISt4pairImjESaIS1_EE19_M_get_Tp_allocatorEv>
    3b46:	48 89 c2             	mov    %rax,%rdx
    3b49:	48 8b 4d d0          	mov    -0x30(%rbp),%rcx
    3b4d:	48 8b 45 c8          	mov    -0x38(%rbp),%rax
    3b51:	48 89 ce             	mov    %rcx,%rsi
    3b54:	48 89 c7             	mov    %rax,%rdi
    3b57:	e8 0a fd ff ff       	callq  3866 <_ZSt8_DestroyIPSt4pairImjES1_EvT_S3_RSaIT0_E>
    3b5c:	48 8b 45 a8          	mov    -0x58(%rbp),%rax
    3b60:	48 8b 55 a8          	mov    -0x58(%rbp),%rdx
    3b64:	48 8b 52 10          	mov    0x10(%rdx),%rdx
    3b68:	48 2b 55 c8          	sub    -0x38(%rbp),%rdx
    3b6c:	48 c1 fa 04          	sar    $0x4,%rdx
    3b70:	48 8b 4d c8          	mov    -0x38(%rbp),%rcx
    3b74:	48 89 ce             	mov    %rcx,%rsi
    3b77:	48 89 c7             	mov    %rax,%rdi
    3b7a:	e8 a3 fc ff ff       	callq  3822 <_ZNSt12_Vector_baseISt4pairImjESaIS1_EE13_M_deallocateEPS1_m>
    3b7f:	48 8b 45 a8          	mov    -0x58(%rbp),%rax
    3b83:	48 8b 55 e0          	mov    -0x20(%rbp),%rdx
    3b87:	48 89 10             	mov    %rdx,(%rax)
    3b8a:	48 8b 45 a8          	mov    -0x58(%rbp),%rax
    3b8e:	48 8b 55 b8          	mov    -0x48(%rbp),%rdx
    3b92:	48 89 50 08          	mov    %rdx,0x8(%rax)
    3b96:	48 8b 45 c0          	mov    -0x40(%rbp),%rax
    3b9a:	48 c1 e0 04          	shl    $0x4,%rax
    3b9e:	48 89 c2             	mov    %rax,%rdx
    3ba1:	48 8b 45 e0          	mov    -0x20(%rbp),%rax
    3ba5:	48 01 c2             	add    %rax,%rdx
    3ba8:	48 8b 45 a8          	mov    -0x58(%rbp),%rax
    3bac:	48 89 50 10          	mov    %rdx,0x10(%rax)
    3bb0:	90                   	nop
    3bb1:	48 8b 45 e8          	mov    -0x18(%rbp),%rax
    3bb5:	64 48 33 04 25 28 00 	xor    %fs:0x28,%rax
    3bbc:	00 00 
    3bbe:	0f 84 8d 00 00 00    	je     3c51 <_ZNSt6vectorISt4pairImjESaIS1_EE17_M_realloc_insertIJRS1_EEEvN9__gnu_cxx17__normal_iteratorIPS1_S3_EEDpOT_+0x2e1>
    3bc4:	e9 83 00 00 00       	jmpq   3c4c <_ZNSt6vectorISt4pairImjESaIS1_EE17_M_realloc_insertIJRS1_EEEvN9__gnu_cxx17__normal_iteratorIPS1_S3_EEDpOT_+0x2dc>
    3bc9:	48 89 c7             	mov    %rax,%rdi
    3bcc:	e8 7f e4 ff ff       	callq  2050 <__cxa_begin_catch@plt>
    3bd1:	48 83 7d b8 00       	cmpq   $0x0,-0x48(%rbp)
    3bd6:	75 23                	jne    3bfb <_ZNSt6vectorISt4pairImjESaIS1_EE17_M_realloc_insertIJRS1_EEEvN9__gnu_cxx17__normal_iteratorIPS1_S3_EEDpOT_+0x28b>
    3bd8:	48 8b 45 d8          	mov    -0x28(%rbp),%rax
    3bdc:	48 c1 e0 04          	shl    $0x4,%rax
    3be0:	48 89 c2             	mov    %rax,%rdx
    3be3:	48 8b 45 e0          	mov    -0x20(%rbp),%rax
    3be7:	48 01 c2             	add    %rax,%rdx
    3bea:	48 8b 45 a8          	mov    -0x58(%rbp),%rax
    3bee:	48 89 d6             	mov    %rdx,%rsi
    3bf1:	48 89 c7             	mov    %rax,%rdi
    3bf4:	e8 43 0b 00 00       	callq  473c <_ZNSt16allocator_traitsISaISt4pairImjEEE7destroyIS1_EEvRS2_PT_>
    3bf9:	eb 22                	jmp    3c1d <_ZNSt6vectorISt4pairImjESaIS1_EE17_M_realloc_insertIJRS1_EEEvN9__gnu_cxx17__normal_iteratorIPS1_S3_EEDpOT_+0x2ad>
    3bfb:	48 8b 45 a8          	mov    -0x58(%rbp),%rax
    3bff:	48 89 c7             	mov    %rax,%rdi
    3c02:	e8 51 fc ff ff       	callq  3858 <_ZNSt12_Vector_baseISt4pairImjESaIS1_EE19_M_get_Tp_allocatorEv>
    3c07:	48 89 c2             	mov    %rax,%rdx
    3c0a:	48 8b 4d b8          	mov    -0x48(%rbp),%rcx
    3c0e:	48 8b 45 e0          	mov    -0x20(%rbp),%rax
    3c12:	48 89 ce             	mov    %rcx,%rsi
    3c15:	48 89 c7             	mov    %rax,%rdi
    3c18:	e8 49 fc ff ff       	callq  3866 <_ZSt8_DestroyIPSt4pairImjES1_EvT_S3_RSaIT0_E>
    3c1d:	48 8b 45 a8          	mov    -0x58(%rbp),%rax
    3c21:	48 8b 55 c0          	mov    -0x40(%rbp),%rdx
    3c25:	48 8b 4d e0          	mov    -0x20(%rbp),%rcx
    3c29:	48 89 ce             	mov    %rcx,%rsi
    3c2c:	48 89 c7             	mov    %rax,%rdi
    3c2f:	e8 ee fb ff ff       	callq  3822 <_ZNSt12_Vector_baseISt4pairImjESaIS1_EE13_M_deallocateEPS1_m>
    3c34:	e8 97 e5 ff ff       	callq  21d0 <__cxa_rethrow@plt>
    3c39:	48 89 c3             	mov    %rax,%rbx
    3c3c:	e8 cf e5 ff ff       	callq  2210 <__cxa_end_catch@plt>
    3c41:	48 89 d8             	mov    %rbx,%rax
    3c44:	48 89 c7             	mov    %rax,%rdi
    3c47:	e8 e4 e5 ff ff       	callq  2230 <_Unwind_Resume@plt>
    3c4c:	e8 1f e5 ff ff       	callq  2170 <__stack_chk_fail@plt>
    3c51:	48 83 c4 68          	add    $0x68,%rsp
    3c55:	5b                   	pop    %rbx
    3c56:	5d                   	pop    %rbp
    3c57:	c3                   	retq   

0000000000003c58 <_ZNSaIiEC1Ev>:
    3c58:	55                   	push   %rbp
    3c59:	48 89 e5             	mov    %rsp,%rbp
    3c5c:	48 83 ec 10          	sub    $0x10,%rsp
    3c60:	48 89 7d f8          	mov    %rdi,-0x8(%rbp)
    3c64:	48 8b 45 f8          	mov    -0x8(%rbp),%rax
    3c68:	48 89 c7             	mov    %rax,%rdi
    3c6b:	e8 f2 0a 00 00       	callq  4762 <_ZN9__gnu_cxx13new_allocatorIiEC1Ev>
    3c70:	90                   	nop
    3c71:	c9                   	leaveq 
    3c72:	c3                   	retq   
    3c73:	90                   	nop

0000000000003c74 <_ZNSt12_Vector_baseIiSaIiEE17_Vector_impl_dataC1Ev>:
    3c74:	55                   	push   %rbp
    3c75:	48 89 e5             	mov    %rsp,%rbp
    3c78:	48 89 7d f8          	mov    %rdi,-0x8(%rbp)
    3c7c:	48 8b 45 f8          	mov    -0x8(%rbp),%rax
    3c80:	48 c7 00 00 00 00 00 	movq   $0x0,(%rax)
    3c87:	48 8b 45 f8          	mov    -0x8(%rbp),%rax
    3c8b:	48 c7 40 08 00 00 00 	movq   $0x0,0x8(%rax)
    3c92:	00 
    3c93:	48 8b 45 f8          	mov    -0x8(%rbp),%rax
    3c97:	48 c7 40 10 00 00 00 	movq   $0x0,0x10(%rax)
    3c9e:	00 
    3c9f:	90                   	nop
    3ca0:	5d                   	pop    %rbp
    3ca1:	c3                   	retq   

0000000000003ca2 <_ZN9__gnu_cxx13new_allocatorIiED1Ev>:
    3ca2:	55                   	push   %rbp
    3ca3:	48 89 e5             	mov    %rsp,%rbp
    3ca6:	48 89 7d f8          	mov    %rdi,-0x8(%rbp)
    3caa:	90                   	nop
    3cab:	5d                   	pop    %rbp
    3cac:	c3                   	retq   
    3cad:	90                   	nop

0000000000003cae <_ZNSt12_Vector_baseIiSaIiEE13_M_deallocateEPim>:
    3cae:	55                   	push   %rbp
    3caf:	48 89 e5             	mov    %rsp,%rbp
    3cb2:	48 83 ec 20          	sub    $0x20,%rsp
    3cb6:	48 89 7d f8          	mov    %rdi,-0x8(%rbp)
    3cba:	48 89 75 f0          	mov    %rsi,-0x10(%rbp)
    3cbe:	48 89 55 e8          	mov    %rdx,-0x18(%rbp)
    3cc2:	48 83 7d f0 00       	cmpq   $0x0,-0x10(%rbp)
    3cc7:	74 17                	je     3ce0 <_ZNSt12_Vector_baseIiSaIiEE13_M_deallocateEPim+0x32>
    3cc9:	48 8b 45 f8          	mov    -0x8(%rbp),%rax
    3ccd:	48 8b 55 e8          	mov    -0x18(%rbp),%rdx
    3cd1:	48 8b 4d f0          	mov    -0x10(%rbp),%rcx
    3cd5:	48 89 ce             	mov    %rcx,%rsi
    3cd8:	48 89 c7             	mov    %rax,%rdi
    3cdb:	e8 8d 0a 00 00       	callq  476d <_ZNSt16allocator_traitsISaIiEE10deallocateERS0_Pim>
    3ce0:	90                   	nop
    3ce1:	c9                   	leaveq 
    3ce2:	c3                   	retq   
    3ce3:	90                   	nop

0000000000003ce4 <_ZNSt12_Vector_baseIiSaIiEE19_M_get_Tp_allocatorEv>:
    3ce4:	55                   	push   %rbp
    3ce5:	48 89 e5             	mov    %rsp,%rbp
    3ce8:	48 89 7d f8          	mov    %rdi,-0x8(%rbp)
    3cec:	48 8b 45 f8          	mov    -0x8(%rbp),%rax
    3cf0:	5d                   	pop    %rbp
    3cf1:	c3                   	retq   

0000000000003cf2 <_ZSt8_DestroyIPiiEvT_S1_RSaIT0_E>:
    3cf2:	55                   	push   %rbp
    3cf3:	48 89 e5             	mov    %rsp,%rbp
    3cf6:	48 83 ec 20          	sub    $0x20,%rsp
    3cfa:	48 89 7d f8          	mov    %rdi,-0x8(%rbp)
    3cfe:	48 89 75 f0          	mov    %rsi,-0x10(%rbp)
    3d02:	48 89 55 e8          	mov    %rdx,-0x18(%rbp)
    3d06:	48 8b 55 f0          	mov    -0x10(%rbp),%rdx
    3d0a:	48 8b 45 f8          	mov    -0x8(%rbp),%rax
    3d0e:	48 89 d6             	mov    %rdx,%rsi
    3d11:	48 89 c7             	mov    %rax,%rdi
    3d14:	e8 82 0a 00 00       	callq  479b <_ZSt8_DestroyIPiEvT_S1_>
    3d19:	90                   	nop
    3d1a:	c9                   	leaveq 
    3d1b:	c3                   	retq   

0000000000003d1c <_ZSt7forwardIjEOT_RNSt16remove_referenceIS0_E4typeE>:
    3d1c:	55                   	push   %rbp
    3d1d:	48 89 e5             	mov    %rsp,%rbp
    3d20:	48 89 7d f8          	mov    %rdi,-0x8(%rbp)
    3d24:	48 8b 45 f8          	mov    -0x8(%rbp),%rax
    3d28:	5d                   	pop    %rbp
    3d29:	c3                   	retq   

0000000000003d2a <_ZNSt16allocator_traitsISaIiEE9constructIiJjEEEvRS0_PT_DpOT0_>:
    3d2a:	55                   	push   %rbp
    3d2b:	48 89 e5             	mov    %rsp,%rbp
    3d2e:	48 83 ec 20          	sub    $0x20,%rsp
    3d32:	48 89 7d f8          	mov    %rdi,-0x8(%rbp)
    3d36:	48 89 75 f0          	mov    %rsi,-0x10(%rbp)
    3d3a:	48 89 55 e8          	mov    %rdx,-0x18(%rbp)
    3d3e:	48 8b 45 e8          	mov    -0x18(%rbp),%rax
    3d42:	48 89 c7             	mov    %rax,%rdi
    3d45:	e8 d2 ff ff ff       	callq  3d1c <_ZSt7forwardIjEOT_RNSt16remove_referenceIS0_E4typeE>
    3d4a:	48 89 c2             	mov    %rax,%rdx
    3d4d:	48 8b 4d f0          	mov    -0x10(%rbp),%rcx
    3d51:	48 8b 45 f8          	mov    -0x8(%rbp),%rax
    3d55:	48 89 ce             	mov    %rcx,%rsi
    3d58:	48 89 c7             	mov    %rax,%rdi
    3d5b:	e8 62 0a 00 00       	callq  47c2 <_ZN9__gnu_cxx13new_allocatorIiE9constructIiJjEEEvPT_DpOT0_>
    3d60:	90                   	nop
    3d61:	c9                   	leaveq 
    3d62:	c3                   	retq   
    3d63:	90                   	nop

0000000000003d64 <_ZNSt6vectorIiSaIiEE3endEv>:
    3d64:	55                   	push   %rbp
    3d65:	48 89 e5             	mov    %rsp,%rbp
    3d68:	48 83 ec 20          	sub    $0x20,%rsp
    3d6c:	48 89 7d e8          	mov    %rdi,-0x18(%rbp)
    3d70:	64 48 8b 04 25 28 00 	mov    %fs:0x28,%rax
    3d77:	00 00 
    3d79:	48 89 45 f8          	mov    %rax,-0x8(%rbp)
    3d7d:	31 c0                	xor    %eax,%eax
    3d7f:	48 8b 45 e8          	mov    -0x18(%rbp),%rax
    3d83:	48 8d 50 08          	lea    0x8(%rax),%rdx
    3d87:	48 8d 45 f0          	lea    -0x10(%rbp),%rax
    3d8b:	48 89 d6             	mov    %rdx,%rsi
    3d8e:	48 89 c7             	mov    %rax,%rdi
    3d91:	e8 6c 0a 00 00       	callq  4802 <_ZN9__gnu_cxx17__normal_iteratorIPiSt6vectorIiSaIiEEEC1ERKS1_>
    3d96:	48 8b 45 f0          	mov    -0x10(%rbp),%rax
    3d9a:	48 8b 4d f8          	mov    -0x8(%rbp),%rcx
    3d9e:	64 48 33 0c 25 28 00 	xor    %fs:0x28,%rcx
    3da5:	00 00 
    3da7:	74 05                	je     3dae <_ZNSt6vectorIiSaIiEE3endEv+0x4a>
    3da9:	e8 c2 e3 ff ff       	callq  2170 <__stack_chk_fail@plt>
    3dae:	c9                   	leaveq 
    3daf:	c3                   	retq   

0000000000003db0 <_ZNSt6vectorIiSaIiEE15_S_use_relocateEv>:
    3db0:	55                   	push   %rbp
    3db1:	48 89 e5             	mov    %rsp,%rbp
    3db4:	48 83 ec 10          	sub    $0x10,%rsp
    3db8:	64 48 8b 04 25 28 00 	mov    %fs:0x28,%rax
    3dbf:	00 00 
    3dc1:	48 89 45 f8          	mov    %rax,-0x8(%rbp)
    3dc5:	31 c0                	xor    %eax,%eax
    3dc7:	e8 16 00 00 00       	callq  3de2 <_ZNSt6vectorIiSaIiEE19_S_nothrow_relocateESt17integral_constantIbLb1EE>
    3dcc:	48 8b 55 f8          	mov    -0x8(%rbp),%rdx
    3dd0:	64 48 33 14 25 28 00 	xor    %fs:0x28,%rdx
    3dd7:	00 00 
    3dd9:	74 05                	je     3de0 <_ZNSt6vectorIiSaIiEE15_S_use_relocateEv+0x30>
    3ddb:	e8 90 e3 ff ff       	callq  2170 <__stack_chk_fail@plt>
    3de0:	c9                   	leaveq 
    3de1:	c3                   	retq   

0000000000003de2 <_ZNSt6vectorIiSaIiEE19_S_nothrow_relocateESt17integral_constantIbLb1EE>:
    3de2:	55                   	push   %rbp
    3de3:	48 89 e5             	mov    %rsp,%rbp
    3de6:	b8 01 00 00 00       	mov    $0x1,%eax
    3deb:	5d                   	pop    %rbp
    3dec:	c3                   	retq   
    3ded:	90                   	nop

0000000000003dee <_ZNSt6vectorIiSaIiEE17_M_realloc_insertIJjEEEvN9__gnu_cxx17__normal_iteratorIPiS1_EEDpOT_>:
    3dee:	55                   	push   %rbp
    3def:	48 89 e5             	mov    %rsp,%rbp
    3df2:	53                   	push   %rbx
    3df3:	48 83 ec 68          	sub    $0x68,%rsp
    3df7:	48 89 7d a8          	mov    %rdi,-0x58(%rbp)
    3dfb:	48 89 75 a0          	mov    %rsi,-0x60(%rbp)
    3dff:	48 89 55 98          	mov    %rdx,-0x68(%rbp)
    3e03:	64 48 8b 04 25 28 00 	mov    %fs:0x28,%rax
    3e0a:	00 00 
    3e0c:	48 89 45 e8          	mov    %rax,-0x18(%rbp)
    3e10:	31 c0                	xor    %eax,%eax
    3e12:	48 8b 45 a8          	mov    -0x58(%rbp),%rax
    3e16:	48 8d 15 0b 23 00 00 	lea    0x230b(%rip),%rdx        # 6128 <_ZStL19piecewise_construct+0x120>
    3e1d:	be 01 00 00 00       	mov    $0x1,%esi
    3e22:	48 89 c7             	mov    %rax,%rdi
    3e25:	e8 f6 09 00 00       	callq  4820 <_ZNKSt6vectorIiSaIiEE12_M_check_lenEmPKc>
    3e2a:	48 89 45 c0          	mov    %rax,-0x40(%rbp)
    3e2e:	48 8b 45 a8          	mov    -0x58(%rbp),%rax
    3e32:	48 8b 00             	mov    (%rax),%rax
    3e35:	48 89 45 c8          	mov    %rax,-0x38(%rbp)
    3e39:	48 8b 45 a8          	mov    -0x58(%rbp),%rax
    3e3d:	48 8b 40 08          	mov    0x8(%rax),%rax
    3e41:	48 89 45 d0          	mov    %rax,-0x30(%rbp)
    3e45:	48 8b 45 a8          	mov    -0x58(%rbp),%rax
    3e49:	48 89 c7             	mov    %rax,%rdi
    3e4c:	e8 bb 0a 00 00       	callq  490c <_ZNSt6vectorIiSaIiEE5beginEv>
    3e51:	48 89 45 b0          	mov    %rax,-0x50(%rbp)
    3e55:	48 8d 55 b0          	lea    -0x50(%rbp),%rdx
    3e59:	48 8d 45 a0          	lea    -0x60(%rbp),%rax
    3e5d:	48 89 d6             	mov    %rdx,%rsi
    3e60:	48 89 c7             	mov    %rax,%rdi
    3e63:	e8 ec 0a 00 00       	callq  4954 <_ZN9__gnu_cxxmiIPiSt6vectorIiSaIiEEEENS_17__normal_iteratorIT_T0_E15difference_typeERKS8_SB_>
    3e68:	48 89 45 d8          	mov    %rax,-0x28(%rbp)
    3e6c:	48 8b 45 a8          	mov    -0x58(%rbp),%rax
    3e70:	48 8b 55 c0          	mov    -0x40(%rbp),%rdx
    3e74:	48 89 d6             	mov    %rdx,%rsi
    3e77:	48 89 c7             	mov    %rax,%rdi
    3e7a:	e8 15 0b 00 00       	callq  4994 <_ZNSt12_Vector_baseIiSaIiEE11_M_allocateEm>
    3e7f:	48 89 45 e0          	mov    %rax,-0x20(%rbp)
    3e83:	48 8b 45 e0          	mov    -0x20(%rbp),%rax
    3e87:	48 89 45 b8          	mov    %rax,-0x48(%rbp)
    3e8b:	48 8b 45 98          	mov    -0x68(%rbp),%rax
    3e8f:	48 89 c7             	mov    %rax,%rdi
    3e92:	e8 85 fe ff ff       	callq  3d1c <_ZSt7forwardIjEOT_RNSt16remove_referenceIS0_E4typeE>
    3e97:	48 89 c2             	mov    %rax,%rdx
    3e9a:	48 8b 45 d8          	mov    -0x28(%rbp),%rax
    3e9e:	48 8d 0c 85 00 00 00 	lea    0x0(,%rax,4),%rcx
    3ea5:	00 
    3ea6:	48 8b 45 e0          	mov    -0x20(%rbp),%rax
    3eaa:	48 01 c1             	add    %rax,%rcx
    3ead:	48 8b 45 a8          	mov    -0x58(%rbp),%rax
    3eb1:	48 89 ce             	mov    %rcx,%rsi
    3eb4:	48 89 c7             	mov    %rax,%rdi
    3eb7:	e8 6e fe ff ff       	callq  3d2a <_ZNSt16allocator_traitsISaIiEE9constructIiJjEEEvRS0_PT_DpOT0_>
    3ebc:	48 c7 45 b8 00 00 00 	movq   $0x0,-0x48(%rbp)
    3ec3:	00 
    3ec4:	e8 e7 fe ff ff       	callq  3db0 <_ZNSt6vectorIiSaIiEE15_S_use_relocateEv>
    3ec9:	84 c0                	test   %al,%al
    3ecb:	74 71                	je     3f3e <_ZNSt6vectorIiSaIiEE17_M_realloc_insertIJjEEEvN9__gnu_cxx17__normal_iteratorIPiS1_EEDpOT_+0x150>
    3ecd:	48 8b 45 a8          	mov    -0x58(%rbp),%rax
    3ed1:	48 89 c7             	mov    %rax,%rdi
    3ed4:	e8 0b fe ff ff       	callq  3ce4 <_ZNSt12_Vector_baseIiSaIiEE19_M_get_Tp_allocatorEv>
    3ed9:	48 89 c3             	mov    %rax,%rbx
    3edc:	48 8d 45 a0          	lea    -0x60(%rbp),%rax
    3ee0:	48 89 c7             	mov    %rax,%rdi
    3ee3:	e8 34 0b 00 00       	callq  4a1c <_ZNK9__gnu_cxx17__normal_iteratorIPiSt6vectorIiSaIiEEE4baseEv>
    3ee8:	48 8b 30             	mov    (%rax),%rsi
    3eeb:	48 8b 55 e0          	mov    -0x20(%rbp),%rdx
    3eef:	48 8b 45 c8          	mov    -0x38(%rbp),%rax
    3ef3:	48 89 d9             	mov    %rbx,%rcx
    3ef6:	48 89 c7             	mov    %rax,%rdi
    3ef9:	e8 c9 0a 00 00       	callq  49c7 <_ZNSt6vectorIiSaIiEE11_S_relocateEPiS2_S2_RS0_>
    3efe:	48 89 45 b8          	mov    %rax,-0x48(%rbp)
    3f02:	48 83 45 b8 04       	addq   $0x4,-0x48(%rbp)
    3f07:	48 8b 45 a8          	mov    -0x58(%rbp),%rax
    3f0b:	48 89 c7             	mov    %rax,%rdi
    3f0e:	e8 d1 fd ff ff       	callq  3ce4 <_ZNSt12_Vector_baseIiSaIiEE19_M_get_Tp_allocatorEv>
    3f13:	48 89 c3             	mov    %rax,%rbx
    3f16:	48 8d 45 a0          	lea    -0x60(%rbp),%rax
    3f1a:	48 89 c7             	mov    %rax,%rdi
    3f1d:	e8 fa 0a 00 00       	callq  4a1c <_ZNK9__gnu_cxx17__normal_iteratorIPiSt6vectorIiSaIiEEE4baseEv>
    3f22:	48 8b 00             	mov    (%rax),%rax
    3f25:	48 8b 55 b8          	mov    -0x48(%rbp),%rdx
    3f29:	48 8b 75 d0          	mov    -0x30(%rbp),%rsi
    3f2d:	48 89 d9             	mov    %rbx,%rcx
    3f30:	48 89 c7             	mov    %rax,%rdi
    3f33:	e8 8f 0a 00 00       	callq  49c7 <_ZNSt6vectorIiSaIiEE11_S_relocateEPiS2_S2_RS0_>
    3f38:	48 89 45 b8          	mov    %rax,-0x48(%rbp)
    3f3c:	eb 6f                	jmp    3fad <_ZNSt6vectorIiSaIiEE17_M_realloc_insertIJjEEEvN9__gnu_cxx17__normal_iteratorIPiS1_EEDpOT_+0x1bf>
    3f3e:	48 8b 45 a8          	mov    -0x58(%rbp),%rax
    3f42:	48 89 c7             	mov    %rax,%rdi
    3f45:	e8 9a fd ff ff       	callq  3ce4 <_ZNSt12_Vector_baseIiSaIiEE19_M_get_Tp_allocatorEv>
    3f4a:	48 89 c3             	mov    %rax,%rbx
    3f4d:	48 8d 45 a0          	lea    -0x60(%rbp),%rax
    3f51:	48 89 c7             	mov    %rax,%rdi
    3f54:	e8 c3 0a 00 00       	callq  4a1c <_ZNK9__gnu_cxx17__normal_iteratorIPiSt6vectorIiSaIiEEE4baseEv>
    3f59:	48 8b 30             	mov    (%rax),%rsi
    3f5c:	48 8b 55 e0          	mov    -0x20(%rbp),%rdx
    3f60:	48 8b 45 c8          	mov    -0x38(%rbp),%rax
    3f64:	48 89 d9             	mov    %rbx,%rcx
    3f67:	48 89 c7             	mov    %rax,%rdi
    3f6a:	e8 bb 0a 00 00       	callq  4a2a <_ZSt34__uninitialized_move_if_noexcept_aIPiS0_SaIiEET0_T_S3_S2_RT1_>
    3f6f:	48 89 45 b8          	mov    %rax,-0x48(%rbp)
    3f73:	48 83 45 b8 04       	addq   $0x4,-0x48(%rbp)
    3f78:	48 8b 45 a8          	mov    -0x58(%rbp),%rax
    3f7c:	48 89 c7             	mov    %rax,%rdi
    3f7f:	e8 60 fd ff ff       	callq  3ce4 <_ZNSt12_Vector_baseIiSaIiEE19_M_get_Tp_allocatorEv>
    3f84:	48 89 c3             	mov    %rax,%rbx
    3f87:	48 8d 45 a0          	lea    -0x60(%rbp),%rax
    3f8b:	48 89 c7             	mov    %rax,%rdi
    3f8e:	e8 89 0a 00 00       	callq  4a1c <_ZNK9__gnu_cxx17__normal_iteratorIPiSt6vectorIiSaIiEEE4baseEv>
    3f93:	48 8b 00             	mov    (%rax),%rax
    3f96:	48 8b 55 b8          	mov    -0x48(%rbp),%rdx
    3f9a:	48 8b 75 d0          	mov    -0x30(%rbp),%rsi
    3f9e:	48 89 d9             	mov    %rbx,%rcx
    3fa1:	48 89 c7             	mov    %rax,%rdi
    3fa4:	e8 81 0a 00 00       	callq  4a2a <_ZSt34__uninitialized_move_if_noexcept_aIPiS0_SaIiEET0_T_S3_S2_RT1_>
    3fa9:	48 89 45 b8          	mov    %rax,-0x48(%rbp)
    3fad:	e8 fe fd ff ff       	callq  3db0 <_ZNSt6vectorIiSaIiEE15_S_use_relocateEv>
    3fb2:	83 f0 01             	xor    $0x1,%eax
    3fb5:	84 c0                	test   %al,%al
    3fb7:	74 22                	je     3fdb <_ZNSt6vectorIiSaIiEE17_M_realloc_insertIJjEEEvN9__gnu_cxx17__normal_iteratorIPiS1_EEDpOT_+0x1ed>
    3fb9:	48 8b 45 a8          	mov    -0x58(%rbp),%rax
    3fbd:	48 89 c7             	mov    %rax,%rdi
    3fc0:	e8 1f fd ff ff       	callq  3ce4 <_ZNSt12_Vector_baseIiSaIiEE19_M_get_Tp_allocatorEv>
    3fc5:	48 89 c2             	mov    %rax,%rdx
    3fc8:	48 8b 4d d0          	mov    -0x30(%rbp),%rcx
    3fcc:	48 8b 45 c8          	mov    -0x38(%rbp),%rax
    3fd0:	48 89 ce             	mov    %rcx,%rsi
    3fd3:	48 89 c7             	mov    %rax,%rdi
    3fd6:	e8 17 fd ff ff       	callq  3cf2 <_ZSt8_DestroyIPiiEvT_S1_RSaIT0_E>
    3fdb:	48 8b 45 a8          	mov    -0x58(%rbp),%rax
    3fdf:	48 8b 55 a8          	mov    -0x58(%rbp),%rdx
    3fe3:	48 8b 52 10          	mov    0x10(%rdx),%rdx
    3fe7:	48 2b 55 c8          	sub    -0x38(%rbp),%rdx
    3feb:	48 c1 fa 02          	sar    $0x2,%rdx
    3fef:	48 8b 4d c8          	mov    -0x38(%rbp),%rcx
    3ff3:	48 89 ce             	mov    %rcx,%rsi
    3ff6:	48 89 c7             	mov    %rax,%rdi
    3ff9:	e8 b0 fc ff ff       	callq  3cae <_ZNSt12_Vector_baseIiSaIiEE13_M_deallocateEPim>
    3ffe:	48 8b 45 a8          	mov    -0x58(%rbp),%rax
    4002:	48 8b 55 e0          	mov    -0x20(%rbp),%rdx
    4006:	48 89 10             	mov    %rdx,(%rax)
    4009:	48 8b 45 a8          	mov    -0x58(%rbp),%rax
    400d:	48 8b 55 b8          	mov    -0x48(%rbp),%rdx
    4011:	48 89 50 08          	mov    %rdx,0x8(%rax)
    4015:	48 8b 45 c0          	mov    -0x40(%rbp),%rax
    4019:	48 8d 14 85 00 00 00 	lea    0x0(,%rax,4),%rdx
    4020:	00 
    4021:	48 8b 45 e0          	mov    -0x20(%rbp),%rax
    4025:	48 01 c2             	add    %rax,%rdx
    4028:	48 8b 45 a8          	mov    -0x58(%rbp),%rax
    402c:	48 89 50 10          	mov    %rdx,0x10(%rax)
    4030:	90                   	nop
    4031:	48 8b 45 e8          	mov    -0x18(%rbp),%rax
    4035:	64 48 33 04 25 28 00 	xor    %fs:0x28,%rax
    403c:	00 00 
    403e:	0f 84 8e 00 00 00    	je     40d2 <_ZNSt6vectorIiSaIiEE17_M_realloc_insertIJjEEEvN9__gnu_cxx17__normal_iteratorIPiS1_EEDpOT_+0x2e4>
    4044:	e9 84 00 00 00       	jmpq   40cd <_ZNSt6vectorIiSaIiEE17_M_realloc_insertIJjEEEvN9__gnu_cxx17__normal_iteratorIPiS1_EEDpOT_+0x2df>
    4049:	48 89 c7             	mov    %rax,%rdi
    404c:	e8 ff df ff ff       	callq  2050 <__cxa_begin_catch@plt>
    4051:	48 83 7d b8 00       	cmpq   $0x0,-0x48(%rbp)
    4056:	75 24                	jne    407c <_ZNSt6vectorIiSaIiEE17_M_realloc_insertIJjEEEvN9__gnu_cxx17__normal_iteratorIPiS1_EEDpOT_+0x28e>
    4058:	48 8b 45 d8          	mov    -0x28(%rbp),%rax
    405c:	48 8d 14 85 00 00 00 	lea    0x0(,%rax,4),%rdx
    4063:	00 
    4064:	48 8b 45 e0          	mov    -0x20(%rbp),%rax
    4068:	48 01 c2             	add    %rax,%rdx
    406b:	48 8b 45 a8          	mov    -0x58(%rbp),%rax
    406f:	48 89 d6             	mov    %rdx,%rsi
    4072:	48 89 c7             	mov    %rax,%rdi
    4075:	e8 04 0a 00 00       	callq  4a7e <_ZNSt16allocator_traitsISaIiEE7destroyIiEEvRS0_PT_>
    407a:	eb 22                	jmp    409e <_ZNSt6vectorIiSaIiEE17_M_realloc_insertIJjEEEvN9__gnu_cxx17__normal_iteratorIPiS1_EEDpOT_+0x2b0>
    407c:	48 8b 45 a8          	mov    -0x58(%rbp),%rax
    4080:	48 89 c7             	mov    %rax,%rdi
    4083:	e8 5c fc ff ff       	callq  3ce4 <_ZNSt12_Vector_baseIiSaIiEE19_M_get_Tp_allocatorEv>
    4088:	48 89 c2             	mov    %rax,%rdx
    408b:	48 8b 4d b8          	mov    -0x48(%rbp),%rcx
    408f:	48 8b 45 e0          	mov    -0x20(%rbp),%rax
    4093:	48 89 ce             	mov    %rcx,%rsi
    4096:	48 89 c7             	mov    %rax,%rdi
    4099:	e8 54 fc ff ff       	callq  3cf2 <_ZSt8_DestroyIPiiEvT_S1_RSaIT0_E>
    409e:	48 8b 45 a8          	mov    -0x58(%rbp),%rax
    40a2:	48 8b 55 c0          	mov    -0x40(%rbp),%rdx
    40a6:	48 8b 4d e0          	mov    -0x20(%rbp),%rcx
    40aa:	48 89 ce             	mov    %rcx,%rsi
    40ad:	48 89 c7             	mov    %rax,%rdi
    40b0:	e8 f9 fb ff ff       	callq  3cae <_ZNSt12_Vector_baseIiSaIiEE13_M_deallocateEPim>
    40b5:	e8 16 e1 ff ff       	callq  21d0 <__cxa_rethrow@plt>
    40ba:	48 89 c3             	mov    %rax,%rbx
    40bd:	e8 4e e1 ff ff       	callq  2210 <__cxa_end_catch@plt>
    40c2:	48 89 d8             	mov    %rbx,%rax
    40c5:	48 89 c7             	mov    %rax,%rdi
    40c8:	e8 63 e1 ff ff       	callq  2230 <_Unwind_Resume@plt>
    40cd:	e8 9e e0 ff ff       	callq  2170 <__stack_chk_fail@plt>
    40d2:	48 83 c4 68          	add    $0x68,%rsp
    40d6:	5b                   	pop    %rbx
    40d7:	5d                   	pop    %rbp
    40d8:	c3                   	retq   
    40d9:	90                   	nop

00000000000040da <_ZNSaIiEC1ERKS_>:
    40da:	55                   	push   %rbp
    40db:	48 89 e5             	mov    %rsp,%rbp
    40de:	48 83 ec 10          	sub    $0x10,%rsp
    40e2:	48 89 7d f8          	mov    %rdi,-0x8(%rbp)
    40e6:	48 89 75 f0          	mov    %rsi,-0x10(%rbp)
    40ea:	48 8b 55 f0          	mov    -0x10(%rbp),%rdx
    40ee:	48 8b 45 f8          	mov    -0x8(%rbp),%rax
    40f2:	48 89 d6             	mov    %rdx,%rsi
    40f5:	48 89 c7             	mov    %rax,%rdi
    40f8:	e8 a7 09 00 00       	callq  4aa4 <_ZN9__gnu_cxx13new_allocatorIiEC1ERKS1_>
    40fd:	90                   	nop
    40fe:	c9                   	leaveq 
    40ff:	c3                   	retq   

0000000000004100 <_ZNSt6vectorIiSaIiEE14_M_fill_assignEmRKi>:
    4100:	55                   	push   %rbp
    4101:	48 89 e5             	mov    %rsp,%rbp
    4104:	53                   	push   %rbx
    4105:	48 83 ec 58          	sub    $0x58,%rsp
    4109:	48 89 7d b8          	mov    %rdi,-0x48(%rbp)
    410d:	48 89 75 b0          	mov    %rsi,-0x50(%rbp)
    4111:	48 89 55 a8          	mov    %rdx,-0x58(%rbp)
    4115:	64 48 8b 04 25 28 00 	mov    %fs:0x28,%rax
    411c:	00 00 
    411e:	48 89 45 e8          	mov    %rax,-0x18(%rbp)
    4122:	31 c0                	xor    %eax,%eax
    4124:	48 8b 45 b8          	mov    -0x48(%rbp),%rax
    4128:	48 89 c7             	mov    %rax,%rdi
    412b:	e8 84 09 00 00       	callq  4ab4 <_ZNKSt6vectorIiSaIiEE8capacityEv>
    4130:	48 39 45 b0          	cmp    %rax,-0x50(%rbp)
    4134:	0f 97 c0             	seta   %al
    4137:	84 c0                	test   %al,%al
    4139:	74 47                	je     4182 <_ZNSt6vectorIiSaIiEE14_M_fill_assignEmRKi+0x82>
    413b:	48 8b 45 b8          	mov    -0x48(%rbp),%rax
    413f:	48 89 c7             	mov    %rax,%rdi
    4142:	e8 9d fb ff ff       	callq  3ce4 <_ZNSt12_Vector_baseIiSaIiEE19_M_get_Tp_allocatorEv>
    4147:	48 89 c1             	mov    %rax,%rcx
    414a:	48 8b 55 a8          	mov    -0x58(%rbp),%rdx
    414e:	48 8b 75 b0          	mov    -0x50(%rbp),%rsi
    4152:	48 8d 45 d0          	lea    -0x30(%rbp),%rax
    4156:	48 89 c7             	mov    %rax,%rdi
    4159:	e8 7a 09 00 00       	callq  4ad8 <_ZNSt6vectorIiSaIiEEC1EmRKiRKS0_>
    415e:	48 8b 55 b8          	mov    -0x48(%rbp),%rdx
    4162:	48 8d 45 d0          	lea    -0x30(%rbp),%rax
    4166:	48 89 d6             	mov    %rdx,%rsi
    4169:	48 89 c7             	mov    %rax,%rdi
    416c:	e8 e7 09 00 00       	callq  4b58 <_ZNSt12_Vector_baseIiSaIiEE17_Vector_impl_data12_M_swap_dataERS2_>
    4171:	48 8d 45 d0          	lea    -0x30(%rbp),%rax
    4175:	48 89 c7             	mov    %rax,%rdi
    4178:	e8 ef f3 ff ff       	callq  356c <_ZNSt6vectorIiSaIiEED1Ev>
    417d:	e9 be 00 00 00       	jmpq   4240 <_ZNSt6vectorIiSaIiEE14_M_fill_assignEmRKi+0x140>
    4182:	48 8b 45 b8          	mov    -0x48(%rbp),%rax
    4186:	48 89 c7             	mov    %rax,%rdi
    4189:	e8 ce 00 00 00       	callq  425c <_ZNKSt6vectorIiSaIiEE4sizeEv>
    418e:	48 39 45 b0          	cmp    %rax,-0x50(%rbp)
    4192:	0f 97 c0             	seta   %al
    4195:	84 c0                	test   %al,%al
    4197:	74 7b                	je     4214 <_ZNSt6vectorIiSaIiEE14_M_fill_assignEmRKi+0x114>
    4199:	48 8b 45 b8          	mov    -0x48(%rbp),%rax
    419d:	48 89 c7             	mov    %rax,%rdi
    41a0:	e8 bf fb ff ff       	callq  3d64 <_ZNSt6vectorIiSaIiEE3endEv>
    41a5:	48 89 c3             	mov    %rax,%rbx
    41a8:	48 8b 45 b8          	mov    -0x48(%rbp),%rax
    41ac:	48 89 c7             	mov    %rax,%rdi
    41af:	e8 58 07 00 00       	callq  490c <_ZNSt6vectorIiSaIiEE5beginEv>
    41b4:	48 89 c1             	mov    %rax,%rcx
    41b7:	48 8b 45 a8          	mov    -0x58(%rbp),%rax
    41bb:	48 89 c2             	mov    %rax,%rdx
    41be:	48 89 de             	mov    %rbx,%rsi
    41c1:	48 89 cf             	mov    %rcx,%rdi
    41c4:	e8 0a 0a 00 00       	callq  4bd3 <_ZSt4fillIN9__gnu_cxx17__normal_iteratorIPiSt6vectorIiSaIiEEEEiEvT_S7_RKT0_>
    41c9:	48 8b 45 b8          	mov    -0x48(%rbp),%rax
    41cd:	48 89 c7             	mov    %rax,%rdi
    41d0:	e8 87 00 00 00       	callq  425c <_ZNKSt6vectorIiSaIiEE4sizeEv>
    41d5:	48 8b 55 b0          	mov    -0x50(%rbp),%rdx
    41d9:	48 29 c2             	sub    %rax,%rdx
    41dc:	48 89 d0             	mov    %rdx,%rax
    41df:	48 89 45 c8          	mov    %rax,-0x38(%rbp)
    41e3:	48 8b 45 b8          	mov    -0x48(%rbp),%rax
    41e7:	48 89 c7             	mov    %rax,%rdi
    41ea:	e8 f5 fa ff ff       	callq  3ce4 <_ZNSt12_Vector_baseIiSaIiEE19_M_get_Tp_allocatorEv>
    41ef:	48 89 c1             	mov    %rax,%rcx
    41f2:	48 8b 45 b8          	mov    -0x48(%rbp),%rax
    41f6:	48 8b 40 08          	mov    0x8(%rax),%rax
    41fa:	48 8b 55 a8          	mov    -0x58(%rbp),%rdx
    41fe:	48 8b 75 c8          	mov    -0x38(%rbp),%rsi
    4202:	48 89 c7             	mov    %rax,%rdi
    4205:	e8 16 0a 00 00       	callq  4c20 <_ZSt24__uninitialized_fill_n_aIPimiiET_S1_T0_RKT1_RSaIT2_E>
    420a:	48 8b 55 b8          	mov    -0x48(%rbp),%rdx
    420e:	48 89 42 08          	mov    %rax,0x8(%rdx)
    4212:	eb 2c                	jmp    4240 <_ZNSt6vectorIiSaIiEE14_M_fill_assignEmRKi+0x140>
    4214:	48 8b 45 b8          	mov    -0x48(%rbp),%rax
    4218:	48 8b 00             	mov    (%rax),%rax
    421b:	48 8b 55 a8          	mov    -0x58(%rbp),%rdx
    421f:	48 8b 4d b0          	mov    -0x50(%rbp),%rcx
    4223:	48 89 ce             	mov    %rcx,%rsi
    4226:	48 89 c7             	mov    %rax,%rdi
    4229:	e8 84 0a 00 00       	callq  4cb2 <_ZSt6fill_nIPimiET_S1_T0_RKT1_>
    422e:	48 89 c2             	mov    %rax,%rdx
    4231:	48 8b 45 b8          	mov    -0x48(%rbp),%rax
    4235:	48 89 d6             	mov    %rdx,%rsi
    4238:	48 89 c7             	mov    %rax,%rdi
    423b:	e8 12 0a 00 00       	callq  4c52 <_ZNSt6vectorIiSaIiEE15_M_erase_at_endEPi>
    4240:	90                   	nop
    4241:	48 8b 45 e8          	mov    -0x18(%rbp),%rax
    4245:	64 48 33 04 25 28 00 	xor    %fs:0x28,%rax
    424c:	00 00 
    424e:	74 05                	je     4255 <_ZNSt6vectorIiSaIiEE14_M_fill_assignEmRKi+0x155>
    4250:	e8 1b df ff ff       	callq  2170 <__stack_chk_fail@plt>
    4255:	48 83 c4 58          	add    $0x58,%rsp
    4259:	5b                   	pop    %rbx
    425a:	5d                   	pop    %rbp
    425b:	c3                   	retq   

000000000000425c <_ZNKSt6vectorIiSaIiEE4sizeEv>:
    425c:	55                   	push   %rbp
    425d:	48 89 e5             	mov    %rsp,%rbp
    4260:	48 89 7d f8          	mov    %rdi,-0x8(%rbp)
    4264:	48 8b 45 f8          	mov    -0x8(%rbp),%rax
    4268:	48 8b 50 08          	mov    0x8(%rax),%rdx
    426c:	48 8b 45 f8          	mov    -0x8(%rbp),%rax
    4270:	48 8b 00             	mov    (%rax),%rax
    4273:	48 29 c2             	sub    %rax,%rdx
    4276:	48 89 d0             	mov    %rdx,%rax
    4279:	48 c1 f8 02          	sar    $0x2,%rax
    427d:	5d                   	pop    %rbp
    427e:	c3                   	retq   

000000000000427f <_ZN9__gnu_cxx14__alloc_traitsISaIiEiE17_S_select_on_copyERKS1_>:
    427f:	55                   	push   %rbp
    4280:	48 89 e5             	mov    %rsp,%rbp
    4283:	48 83 ec 20          	sub    $0x20,%rsp
    4287:	48 89 7d e8          	mov    %rdi,-0x18(%rbp)
    428b:	48 89 75 e0          	mov    %rsi,-0x20(%rbp)
    428f:	64 48 8b 04 25 28 00 	mov    %fs:0x28,%rax
    4296:	00 00 
    4298:	48 89 45 f8          	mov    %rax,-0x8(%rbp)
    429c:	31 c0                	xor    %eax,%eax
    429e:	48 8b 45 e8          	mov    -0x18(%rbp),%rax
    42a2:	48 8b 55 e0          	mov    -0x20(%rbp),%rdx
    42a6:	48 89 d6             	mov    %rdx,%rsi
    42a9:	48 89 c7             	mov    %rax,%rdi
    42ac:	e8 4b 0a 00 00       	callq  4cfc <_ZNSt16allocator_traitsISaIiEE37select_on_container_copy_constructionERKS0_>
    42b1:	48 8b 45 f8          	mov    -0x8(%rbp),%rax
    42b5:	64 48 33 04 25 28 00 	xor    %fs:0x28,%rax
    42bc:	00 00 
    42be:	74 05                	je     42c5 <_ZN9__gnu_cxx14__alloc_traitsISaIiEiE17_S_select_on_copyERKS1_+0x46>
    42c0:	e8 ab de ff ff       	callq  2170 <__stack_chk_fail@plt>
    42c5:	48 8b 45 e8          	mov    -0x18(%rbp),%rax
    42c9:	c9                   	leaveq 
    42ca:	c3                   	retq   
    42cb:	90                   	nop

00000000000042cc <_ZNKSt12_Vector_baseIiSaIiEE19_M_get_Tp_allocatorEv>:
    42cc:	55                   	push   %rbp
    42cd:	48 89 e5             	mov    %rsp,%rbp
    42d0:	48 89 7d f8          	mov    %rdi,-0x8(%rbp)
    42d4:	48 8b 45 f8          	mov    -0x8(%rbp),%rax
    42d8:	5d                   	pop    %rbp
    42d9:	c3                   	retq   

00000000000042da <_ZNSt12_Vector_baseIiSaIiEEC1EmRKS0_>:
    42da:	55                   	push   %rbp
    42db:	48 89 e5             	mov    %rsp,%rbp
    42de:	53                   	push   %rbx
    42df:	48 83 ec 28          	sub    $0x28,%rsp
    42e3:	48 89 7d e8          	mov    %rdi,-0x18(%rbp)
    42e7:	48 89 75 e0          	mov    %rsi,-0x20(%rbp)
    42eb:	48 89 55 d8          	mov    %rdx,-0x28(%rbp)
    42ef:	48 8b 45 e8          	mov    -0x18(%rbp),%rax
    42f3:	48 8b 55 d8          	mov    -0x28(%rbp),%rdx
    42f7:	48 89 d6             	mov    %rdx,%rsi
    42fa:	48 89 c7             	mov    %rax,%rdi
    42fd:	e8 24 0a 00 00       	callq  4d26 <_ZNSt12_Vector_baseIiSaIiEE12_Vector_implC1ERKS0_>
    4302:	48 8b 55 e0          	mov    -0x20(%rbp),%rdx
    4306:	48 8b 45 e8          	mov    -0x18(%rbp),%rax
    430a:	48 89 d6             	mov    %rdx,%rsi
    430d:	48 89 c7             	mov    %rax,%rdi
    4310:	e8 43 0a 00 00       	callq  4d58 <_ZNSt12_Vector_baseIiSaIiEE17_M_create_storageEm>
    4315:	eb 1a                	jmp    4331 <_ZNSt12_Vector_baseIiSaIiEEC1EmRKS0_+0x57>
    4317:	48 89 c3             	mov    %rax,%rbx
    431a:	48 8b 45 e8          	mov    -0x18(%rbp),%rax
    431e:	48 89 c7             	mov    %rax,%rdi
    4321:	e8 52 ee ff ff       	callq  3178 <_ZNSt12_Vector_baseIiSaIiEE12_Vector_implD1Ev>
    4326:	48 89 d8             	mov    %rbx,%rax
    4329:	48 89 c7             	mov    %rax,%rdi
    432c:	e8 ff de ff ff       	callq  2230 <_Unwind_Resume@plt>
    4331:	48 83 c4 28          	add    $0x28,%rsp
    4335:	5b                   	pop    %rbx
    4336:	5d                   	pop    %rbp
    4337:	c3                   	retq   

0000000000004338 <_ZNKSt6vectorIiSaIiEE5beginEv>:
    4338:	55                   	push   %rbp
    4339:	48 89 e5             	mov    %rsp,%rbp
    433c:	48 83 ec 30          	sub    $0x30,%rsp
    4340:	48 89 7d d8          	mov    %rdi,-0x28(%rbp)
    4344:	64 48 8b 04 25 28 00 	mov    %fs:0x28,%rax
    434b:	00 00 
    434d:	48 89 45 f8          	mov    %rax,-0x8(%rbp)
    4351:	31 c0                	xor    %eax,%eax
    4353:	48 8b 45 d8          	mov    -0x28(%rbp),%rax
    4357:	48 8b 00             	mov    (%rax),%rax
    435a:	48 89 45 e8          	mov    %rax,-0x18(%rbp)
    435e:	48 8d 55 e8          	lea    -0x18(%rbp),%rdx
    4362:	48 8d 45 f0          	lea    -0x10(%rbp),%rax
    4366:	48 89 d6             	mov    %rdx,%rsi
    4369:	48 89 c7             	mov    %rax,%rdi
    436c:	e8 3d 0a 00 00       	callq  4dae <_ZN9__gnu_cxx17__normal_iteratorIPKiSt6vectorIiSaIiEEEC1ERKS2_>
    4371:	48 8b 45 f0          	mov    -0x10(%rbp),%rax
    4375:	48 8b 4d f8          	mov    -0x8(%rbp),%rcx
    4379:	64 48 33 0c 25 28 00 	xor    %fs:0x28,%rcx
    4380:	00 00 
    4382:	74 05                	je     4389 <_ZNKSt6vectorIiSaIiEE5beginEv+0x51>
    4384:	e8 e7 dd ff ff       	callq  2170 <__stack_chk_fail@plt>
    4389:	c9                   	leaveq 
    438a:	c3                   	retq   
    438b:	90                   	nop

000000000000438c <_ZNKSt6vectorIiSaIiEE3endEv>:
    438c:	55                   	push   %rbp
    438d:	48 89 e5             	mov    %rsp,%rbp
    4390:	48 83 ec 30          	sub    $0x30,%rsp
    4394:	48 89 7d d8          	mov    %rdi,-0x28(%rbp)
    4398:	64 48 8b 04 25 28 00 	mov    %fs:0x28,%rax
    439f:	00 00 
    43a1:	48 89 45 f8          	mov    %rax,-0x8(%rbp)
    43a5:	31 c0                	xor    %eax,%eax
    43a7:	48 8b 45 d8          	mov    -0x28(%rbp),%rax
    43ab:	48 8b 40 08          	mov    0x8(%rax),%rax
    43af:	48 89 45 e8          	mov    %rax,-0x18(%rbp)
    43b3:	48 8d 55 e8          	lea    -0x18(%rbp),%rdx
    43b7:	48 8d 45 f0          	lea    -0x10(%rbp),%rax
    43bb:	48 89 d6             	mov    %rdx,%rsi
    43be:	48 89 c7             	mov    %rax,%rdi
    43c1:	e8 e8 09 00 00       	callq  4dae <_ZN9__gnu_cxx17__normal_iteratorIPKiSt6vectorIiSaIiEEEC1ERKS2_>
    43c6:	48 8b 45 f0          	mov    -0x10(%rbp),%rax
    43ca:	48 8b 4d f8          	mov    -0x8(%rbp),%rcx
    43ce:	64 48 33 0c 25 28 00 	xor    %fs:0x28,%rcx
    43d5:	00 00 
    43d7:	74 05                	je     43de <_ZNKSt6vectorIiSaIiEE3endEv+0x52>
    43d9:	e8 92 dd ff ff       	callq  2170 <__stack_chk_fail@plt>
    43de:	c9                   	leaveq 
    43df:	c3                   	retq   

00000000000043e0 <_ZSt22__uninitialized_copy_aIN9__gnu_cxx17__normal_iteratorIPKiSt6vectorIiSaIiEEEEPiiET0_T_SA_S9_RSaIT1_E>:
    43e0:	55                   	push   %rbp
    43e1:	48 89 e5             	mov    %rsp,%rbp
    43e4:	48 83 ec 20          	sub    $0x20,%rsp
    43e8:	48 89 7d f8          	mov    %rdi,-0x8(%rbp)
    43ec:	48 89 75 f0          	mov    %rsi,-0x10(%rbp)
    43f0:	48 89 55 e8          	mov    %rdx,-0x18(%rbp)
    43f4:	48 89 4d e0          	mov    %rcx,-0x20(%rbp)
    43f8:	48 8b 55 e8          	mov    -0x18(%rbp),%rdx
    43fc:	48 8b 4d f0          	mov    -0x10(%rbp),%rcx
    4400:	48 8b 45 f8          	mov    -0x8(%rbp),%rax
    4404:	48 89 ce             	mov    %rcx,%rsi
    4407:	48 89 c7             	mov    %rax,%rdi
    440a:	e8 bc 09 00 00       	callq  4dcb <_ZSt18uninitialized_copyIN9__gnu_cxx17__normal_iteratorIPKiSt6vectorIiSaIiEEEEPiET0_T_SA_S9_>
    440f:	c9                   	leaveq 
    4410:	c3                   	retq   
    4411:	90                   	nop

0000000000004412 <_ZN9__gnu_cxx13new_allocatorISt4pairImjEEC1Ev>:
    4412:	55                   	push   %rbp
    4413:	48 89 e5             	mov    %rsp,%rbp
    4416:	48 89 7d f8          	mov    %rdi,-0x8(%rbp)
    441a:	90                   	nop
    441b:	5d                   	pop    %rbp
    441c:	c3                   	retq   

000000000000441d <_ZNSt16allocator_traitsISaISt4pairImjEEE10deallocateERS2_PS1_m>:
    441d:	55                   	push   %rbp
    441e:	48 89 e5             	mov    %rsp,%rbp
    4421:	48 83 ec 20          	sub    $0x20,%rsp
    4425:	48 89 7d f8          	mov    %rdi,-0x8(%rbp)
    4429:	48 89 75 f0          	mov    %rsi,-0x10(%rbp)
    442d:	48 89 55 e8          	mov    %rdx,-0x18(%rbp)
    4431:	48 8b 55 e8          	mov    -0x18(%rbp),%rdx
    4435:	48 8b 4d f0          	mov    -0x10(%rbp),%rcx
    4439:	48 8b 45 f8          	mov    -0x8(%rbp),%rax
    443d:	48 89 ce             	mov    %rcx,%rsi
    4440:	48 89 c7             	mov    %rax,%rdi
    4443:	e8 b4 09 00 00       	callq  4dfc <_ZN9__gnu_cxx13new_allocatorISt4pairImjEE10deallocateEPS2_m>
    4448:	90                   	nop
    4449:	c9                   	leaveq 
    444a:	c3                   	retq   

000000000000444b <_ZSt8_DestroyIPSt4pairImjEEvT_S3_>:
    444b:	55                   	push   %rbp
    444c:	48 89 e5             	mov    %rsp,%rbp
    444f:	48 83 ec 10          	sub    $0x10,%rsp
    4453:	48 89 7d f8          	mov    %rdi,-0x8(%rbp)
    4457:	48 89 75 f0          	mov    %rsi,-0x10(%rbp)
    445b:	48 8b 55 f0          	mov    -0x10(%rbp),%rdx
    445f:	48 8b 45 f8          	mov    -0x8(%rbp),%rax
    4463:	48 89 d6             	mov    %rdx,%rsi
    4466:	48 89 c7             	mov    %rax,%rdi
    4469:	e8 b1 09 00 00       	callq  4e1f <_ZNSt12_Destroy_auxILb1EE9__destroyIPSt4pairImjEEEvT_S5_>
    446e:	90                   	nop
    446f:	c9                   	leaveq 
    4470:	c3                   	retq   
    4471:	90                   	nop

0000000000004472 <_ZN9__gnu_cxx13new_allocatorISt4pairImjEE9constructIS2_JRS2_EEEvPT_DpOT0_>:
    4472:	55                   	push   %rbp
    4473:	48 89 e5             	mov    %rsp,%rbp
    4476:	53                   	push   %rbx
    4477:	48 83 ec 28          	sub    $0x28,%rsp
    447b:	48 89 7d e8          	mov    %rdi,-0x18(%rbp)
    447f:	48 89 75 e0          	mov    %rsi,-0x20(%rbp)
    4483:	48 89 55 d8          	mov    %rdx,-0x28(%rbp)
    4487:	48 8b 45 d8          	mov    -0x28(%rbp),%rax
    448b:	48 89 c7             	mov    %rax,%rdi
    448e:	e8 0b f4 ff ff       	callq  389e <_ZSt7forwardIRSt4pairImjEEOT_RNSt16remove_referenceIS3_E4typeE>
    4493:	48 89 c3             	mov    %rax,%rbx
    4496:	48 8b 45 e0          	mov    -0x20(%rbp),%rax
    449a:	48 89 c6             	mov    %rax,%rsi
    449d:	bf 10 00 00 00       	mov    $0x10,%edi
    44a2:	e8 2e ec ff ff       	callq  30d5 <_ZnwmPv>
    44a7:	48 89 c1             	mov    %rax,%rcx
    44aa:	48 8b 03             	mov    (%rbx),%rax
    44ad:	48 8b 53 08          	mov    0x8(%rbx),%rdx
    44b1:	48 89 01             	mov    %rax,(%rcx)
    44b4:	48 89 51 08          	mov    %rdx,0x8(%rcx)
    44b8:	90                   	nop
    44b9:	48 83 c4 28          	add    $0x28,%rsp
    44bd:	5b                   	pop    %rbx
    44be:	5d                   	pop    %rbp
    44bf:	c3                   	retq   

00000000000044c0 <_ZN9__gnu_cxx17__normal_iteratorIPSt4pairImjESt6vectorIS2_SaIS2_EEEC1ERKS3_>:
    44c0:	55                   	push   %rbp
    44c1:	48 89 e5             	mov    %rsp,%rbp
    44c4:	48 89 7d f8          	mov    %rdi,-0x8(%rbp)
    44c8:	48 89 75 f0          	mov    %rsi,-0x10(%rbp)
    44cc:	48 8b 45 f0          	mov    -0x10(%rbp),%rax
    44d0:	48 8b 10             	mov    (%rax),%rdx
    44d3:	48 8b 45 f8          	mov    -0x8(%rbp),%rax
    44d7:	48 89 10             	mov    %rdx,(%rax)
    44da:	90                   	nop
    44db:	5d                   	pop    %rbp
    44dc:	c3                   	retq   
    44dd:	90                   	nop

00000000000044de <_ZNKSt6vectorISt4pairImjESaIS1_EE12_M_check_lenEmPKc>:
    44de:	55                   	push   %rbp
    44df:	48 89 e5             	mov    %rsp,%rbp
    44e2:	53                   	push   %rbx
    44e3:	48 83 ec 48          	sub    $0x48,%rsp
    44e7:	48 89 7d c8          	mov    %rdi,-0x38(%rbp)
    44eb:	48 89 75 c0          	mov    %rsi,-0x40(%rbp)
    44ef:	48 89 55 b8          	mov    %rdx,-0x48(%rbp)
    44f3:	64 48 8b 04 25 28 00 	mov    %fs:0x28,%rax
    44fa:	00 00 
    44fc:	48 89 45 e8          	mov    %rax,-0x18(%rbp)
    4500:	31 c0                	xor    %eax,%eax
    4502:	48 8b 45 c8          	mov    -0x38(%rbp),%rax
    4506:	48 89 c7             	mov    %rax,%rdi
    4509:	e8 20 09 00 00       	callq  4e2e <_ZNKSt6vectorISt4pairImjESaIS1_EE8max_sizeEv>
    450e:	48 89 c3             	mov    %rax,%rbx
    4511:	48 8b 45 c8          	mov    -0x38(%rbp),%rax
    4515:	48 89 c7             	mov    %rax,%rdi
    4518:	e8 f5 ee ff ff       	callq  3412 <_ZNKSt6vectorISt4pairImjESaIS1_EE4sizeEv>
    451d:	48 29 c3             	sub    %rax,%rbx
    4520:	48 89 da             	mov    %rbx,%rdx
    4523:	48 8b 45 c0          	mov    -0x40(%rbp),%rax
    4527:	48 39 c2             	cmp    %rax,%rdx
    452a:	0f 92 c0             	setb   %al
    452d:	84 c0                	test   %al,%al
    452f:	74 0c                	je     453d <_ZNKSt6vectorISt4pairImjESaIS1_EE12_M_check_lenEmPKc+0x5f>
    4531:	48 8b 45 b8          	mov    -0x48(%rbp),%rax
    4535:	48 89 c7             	mov    %rax,%rdi
    4538:	e8 53 db ff ff       	callq  2090 <_ZSt20__throw_length_errorPKc@plt>
    453d:	48 8b 45 c8          	mov    -0x38(%rbp),%rax
    4541:	48 89 c7             	mov    %rax,%rdi
    4544:	e8 c9 ee ff ff       	callq  3412 <_ZNKSt6vectorISt4pairImjESaIS1_EE4sizeEv>
    4549:	48 89 c3             	mov    %rax,%rbx
    454c:	48 8b 45 c8          	mov    -0x38(%rbp),%rax
    4550:	48 89 c7             	mov    %rax,%rdi
    4553:	e8 ba ee ff ff       	callq  3412 <_ZNKSt6vectorISt4pairImjESaIS1_EE4sizeEv>
    4558:	48 89 45 d8          	mov    %rax,-0x28(%rbp)
    455c:	48 8d 55 c0          	lea    -0x40(%rbp),%rdx
    4560:	48 8d 45 d8          	lea    -0x28(%rbp),%rax
    4564:	48 89 d6             	mov    %rdx,%rsi
    4567:	48 89 c7             	mov    %rax,%rdi
    456a:	e8 e1 08 00 00       	callq  4e50 <_ZSt3maxImERKT_S2_S2_>
    456f:	48 8b 00             	mov    (%rax),%rax
    4572:	48 01 d8             	add    %rbx,%rax
    4575:	48 89 45 e0          	mov    %rax,-0x20(%rbp)
    4579:	48 8b 45 c8          	mov    -0x38(%rbp),%rax
    457d:	48 89 c7             	mov    %rax,%rdi
    4580:	e8 8d ee ff ff       	callq  3412 <_ZNKSt6vectorISt4pairImjESaIS1_EE4sizeEv>
    4585:	48 39 45 e0          	cmp    %rax,-0x20(%rbp)
    4589:	72 12                	jb     459d <_ZNKSt6vectorISt4pairImjESaIS1_EE12_M_check_lenEmPKc+0xbf>
    458b:	48 8b 45 c8          	mov    -0x38(%rbp),%rax
    458f:	48 89 c7             	mov    %rax,%rdi
    4592:	e8 97 08 00 00       	callq  4e2e <_ZNKSt6vectorISt4pairImjESaIS1_EE8max_sizeEv>
    4597:	48 39 45 e0          	cmp    %rax,-0x20(%rbp)
    459b:	76 0e                	jbe    45ab <_ZNKSt6vectorISt4pairImjESaIS1_EE12_M_check_lenEmPKc+0xcd>
    459d:	48 8b 45 c8          	mov    -0x38(%rbp),%rax
    45a1:	48 89 c7             	mov    %rax,%rdi
    45a4:	e8 85 08 00 00       	callq  4e2e <_ZNKSt6vectorISt4pairImjESaIS1_EE8max_sizeEv>
    45a9:	eb 04                	jmp    45af <_ZNKSt6vectorISt4pairImjESaIS1_EE12_M_check_lenEmPKc+0xd1>
    45ab:	48 8b 45 e0          	mov    -0x20(%rbp),%rax
    45af:	48 8b 4d e8          	mov    -0x18(%rbp),%rcx
    45b3:	64 48 33 0c 25 28 00 	xor    %fs:0x28,%rcx
    45ba:	00 00 
    45bc:	74 05                	je     45c3 <_ZNKSt6vectorISt4pairImjESaIS1_EE12_M_check_lenEmPKc+0xe5>
    45be:	e8 ad db ff ff       	callq  2170 <__stack_chk_fail@plt>
    45c3:	48 83 c4 48          	add    $0x48,%rsp
    45c7:	5b                   	pop    %rbx
    45c8:	5d                   	pop    %rbp
    45c9:	c3                   	retq   

00000000000045ca <_ZNSt6vectorISt4pairImjESaIS1_EE5beginEv>:
    45ca:	55                   	push   %rbp
    45cb:	48 89 e5             	mov    %rsp,%rbp
    45ce:	48 83 ec 20          	sub    $0x20,%rsp
    45d2:	48 89 7d e8          	mov    %rdi,-0x18(%rbp)
    45d6:	64 48 8b 04 25 28 00 	mov    %fs:0x28,%rax
    45dd:	00 00 
    45df:	48 89 45 f8          	mov    %rax,-0x8(%rbp)
    45e3:	31 c0                	xor    %eax,%eax
    45e5:	48 8b 55 e8          	mov    -0x18(%rbp),%rdx
    45e9:	48 8d 45 f0          	lea    -0x10(%rbp),%rax
    45ed:	48 89 d6             	mov    %rdx,%rsi
    45f0:	48 89 c7             	mov    %rax,%rdi
    45f3:	e8 c8 fe ff ff       	callq  44c0 <_ZN9__gnu_cxx17__normal_iteratorIPSt4pairImjESt6vectorIS2_SaIS2_EEEC1ERKS3_>
    45f8:	48 8b 45 f0          	mov    -0x10(%rbp),%rax
    45fc:	48 8b 4d f8          	mov    -0x8(%rbp),%rcx
    4600:	64 48 33 0c 25 28 00 	xor    %fs:0x28,%rcx
    4607:	00 00 
    4609:	74 05                	je     4610 <_ZNSt6vectorISt4pairImjESaIS1_EE5beginEv+0x46>
    460b:	e8 60 db ff ff       	callq  2170 <__stack_chk_fail@plt>
    4610:	c9                   	leaveq 
    4611:	c3                   	retq   

0000000000004612 <_ZN9__gnu_cxxmiIPSt4pairImjESt6vectorIS2_SaIS2_EEEENS_17__normal_iteratorIT_T0_E15difference_typeERKSA_SD_>:
    4612:	55                   	push   %rbp
    4613:	48 89 e5             	mov    %rsp,%rbp
    4616:	53                   	push   %rbx
    4617:	48 83 ec 18          	sub    $0x18,%rsp
    461b:	48 89 7d e8          	mov    %rdi,-0x18(%rbp)
    461f:	48 89 75 e0          	mov    %rsi,-0x20(%rbp)
    4623:	48 8b 45 e8          	mov    -0x18(%rbp),%rax
    4627:	48 89 c7             	mov    %rax,%rdi
    462a:	e8 ab 00 00 00       	callq  46da <_ZNK9__gnu_cxx17__normal_iteratorIPSt4pairImjESt6vectorIS2_SaIS2_EEE4baseEv>
    462f:	48 8b 18             	mov    (%rax),%rbx
    4632:	48 8b 45 e0          	mov    -0x20(%rbp),%rax
    4636:	48 89 c7             	mov    %rax,%rdi
    4639:	e8 9c 00 00 00       	callq  46da <_ZNK9__gnu_cxx17__normal_iteratorIPSt4pairImjESt6vectorIS2_SaIS2_EEE4baseEv>
    463e:	48 8b 00             	mov    (%rax),%rax
    4641:	48 29 c3             	sub    %rax,%rbx
    4644:	48 89 d8             	mov    %rbx,%rax
    4647:	48 c1 f8 04          	sar    $0x4,%rax
    464b:	48 83 c4 18          	add    $0x18,%rsp
    464f:	5b                   	pop    %rbx
    4650:	5d                   	pop    %rbp
    4651:	c3                   	retq   

0000000000004652 <_ZNSt12_Vector_baseISt4pairImjESaIS1_EE11_M_allocateEm>:
    4652:	55                   	push   %rbp
    4653:	48 89 e5             	mov    %rsp,%rbp
    4656:	48 83 ec 10          	sub    $0x10,%rsp
    465a:	48 89 7d f8          	mov    %rdi,-0x8(%rbp)
    465e:	48 89 75 f0          	mov    %rsi,-0x10(%rbp)
    4662:	48 83 7d f0 00       	cmpq   $0x0,-0x10(%rbp)
    4667:	74 15                	je     467e <_ZNSt12_Vector_baseISt4pairImjESaIS1_EE11_M_allocateEm+0x2c>
    4669:	48 8b 45 f8          	mov    -0x8(%rbp),%rax
    466d:	48 8b 55 f0          	mov    -0x10(%rbp),%rdx
    4671:	48 89 d6             	mov    %rdx,%rsi
    4674:	48 89 c7             	mov    %rax,%rdi
    4677:	e8 ff 07 00 00       	callq  4e7b <_ZNSt16allocator_traitsISaISt4pairImjEEE8allocateERS2_m>
    467c:	eb 05                	jmp    4683 <_ZNSt12_Vector_baseISt4pairImjESaIS1_EE11_M_allocateEm+0x31>
    467e:	b8 00 00 00 00       	mov    $0x0,%eax
    4683:	c9                   	leaveq 
    4684:	c3                   	retq   

0000000000004685 <_ZNSt6vectorISt4pairImjESaIS1_EE11_S_relocateEPS1_S4_S4_RS2_>:
    4685:	55                   	push   %rbp
    4686:	48 89 e5             	mov    %rsp,%rbp
    4689:	48 83 ec 30          	sub    $0x30,%rsp
    468d:	48 89 7d e8          	mov    %rdi,-0x18(%rbp)
    4691:	48 89 75 e0          	mov    %rsi,-0x20(%rbp)
    4695:	48 89 55 d8          	mov    %rdx,-0x28(%rbp)
    4699:	48 89 4d d0          	mov    %rcx,-0x30(%rbp)
    469d:	64 48 8b 04 25 28 00 	mov    %fs:0x28,%rax
    46a4:	00 00 
    46a6:	48 89 45 f8          	mov    %rax,-0x8(%rbp)
    46aa:	31 c0                	xor    %eax,%eax
    46ac:	48 8b 4d d0          	mov    -0x30(%rbp),%rcx
    46b0:	48 8b 55 d8          	mov    -0x28(%rbp),%rdx
    46b4:	48 8b 75 e0          	mov    -0x20(%rbp),%rsi
    46b8:	48 8b 45 e8          	mov    -0x18(%rbp),%rax
    46bc:	48 89 c7             	mov    %rax,%rdi
    46bf:	e8 e1 07 00 00       	callq  4ea5 <_ZNSt6vectorISt4pairImjESaIS1_EE14_S_do_relocateEPS1_S4_S4_RS2_St17integral_constantIbLb1EE>
    46c4:	48 8b 7d f8          	mov    -0x8(%rbp),%rdi
    46c8:	64 48 33 3c 25 28 00 	xor    %fs:0x28,%rdi
    46cf:	00 00 
    46d1:	74 05                	je     46d8 <_ZNSt6vectorISt4pairImjESaIS1_EE11_S_relocateEPS1_S4_S4_RS2_+0x53>
    46d3:	e8 98 da ff ff       	callq  2170 <__stack_chk_fail@plt>
    46d8:	c9                   	leaveq 
    46d9:	c3                   	retq   

00000000000046da <_ZNK9__gnu_cxx17__normal_iteratorIPSt4pairImjESt6vectorIS2_SaIS2_EEE4baseEv>:
    46da:	55                   	push   %rbp
    46db:	48 89 e5             	mov    %rsp,%rbp
    46de:	48 89 7d f8          	mov    %rdi,-0x8(%rbp)
    46e2:	48 8b 45 f8          	mov    -0x8(%rbp),%rax
    46e6:	5d                   	pop    %rbp
    46e7:	c3                   	retq   

00000000000046e8 <_ZSt34__uninitialized_move_if_noexcept_aIPSt4pairImjES2_SaIS1_EET0_T_S5_S4_RT1_>:
    46e8:	55                   	push   %rbp
    46e9:	48 89 e5             	mov    %rsp,%rbp
    46ec:	53                   	push   %rbx
    46ed:	48 83 ec 28          	sub    $0x28,%rsp
    46f1:	48 89 7d e8          	mov    %rdi,-0x18(%rbp)
    46f5:	48 89 75 e0          	mov    %rsi,-0x20(%rbp)
    46f9:	48 89 55 d8          	mov    %rdx,-0x28(%rbp)
    46fd:	48 89 4d d0          	mov    %rcx,-0x30(%rbp)
    4701:	48 8b 45 e0          	mov    -0x20(%rbp),%rax
    4705:	48 89 c7             	mov    %rax,%rdi
    4708:	e8 ca 07 00 00       	callq  4ed7 <_ZSt32__make_move_if_noexcept_iteratorISt4pairImjESt13move_iteratorIPS1_EET0_PT_>
    470d:	48 89 c3             	mov    %rax,%rbx
    4710:	48 8b 45 e8          	mov    -0x18(%rbp),%rax
    4714:	48 89 c7             	mov    %rax,%rdi
    4717:	e8 bb 07 00 00       	callq  4ed7 <_ZSt32__make_move_if_noexcept_iteratorISt4pairImjESt13move_iteratorIPS1_EET0_PT_>
    471c:	48 89 c7             	mov    %rax,%rdi
    471f:	48 8b 55 d0          	mov    -0x30(%rbp),%rdx
    4723:	48 8b 45 d8          	mov    -0x28(%rbp),%rax
    4727:	48 89 d1             	mov    %rdx,%rcx
    472a:	48 89 c2             	mov    %rax,%rdx
    472d:	48 89 de             	mov    %rbx,%rsi
    4730:	e8 ea 07 00 00       	callq  4f1f <_ZSt22__uninitialized_copy_aISt13move_iteratorIPSt4pairImjEES3_S2_ET0_T_S6_S5_RSaIT1_E>
    4735:	48 83 c4 28          	add    $0x28,%rsp
    4739:	5b                   	pop    %rbx
    473a:	5d                   	pop    %rbp
    473b:	c3                   	retq   

000000000000473c <_ZNSt16allocator_traitsISaISt4pairImjEEE7destroyIS1_EEvRS2_PT_>:
    473c:	55                   	push   %rbp
    473d:	48 89 e5             	mov    %rsp,%rbp
    4740:	48 83 ec 10          	sub    $0x10,%rsp
    4744:	48 89 7d f8          	mov    %rdi,-0x8(%rbp)
    4748:	48 89 75 f0          	mov    %rsi,-0x10(%rbp)
    474c:	48 8b 55 f0          	mov    -0x10(%rbp),%rdx
    4750:	48 8b 45 f8          	mov    -0x8(%rbp),%rax
    4754:	48 89 d6             	mov    %rdx,%rsi
    4757:	48 89 c7             	mov    %rax,%rdi
    475a:	e8 f1 07 00 00       	callq  4f50 <_ZN9__gnu_cxx13new_allocatorISt4pairImjEE7destroyIS2_EEvPT_>
    475f:	90                   	nop
    4760:	c9                   	leaveq 
    4761:	c3                   	retq   

0000000000004762 <_ZN9__gnu_cxx13new_allocatorIiEC1Ev>:
    4762:	55                   	push   %rbp
    4763:	48 89 e5             	mov    %rsp,%rbp
    4766:	48 89 7d f8          	mov    %rdi,-0x8(%rbp)
    476a:	90                   	nop
    476b:	5d                   	pop    %rbp
    476c:	c3                   	retq   

000000000000476d <_ZNSt16allocator_traitsISaIiEE10deallocateERS0_Pim>:
    476d:	55                   	push   %rbp
    476e:	48 89 e5             	mov    %rsp,%rbp
    4771:	48 83 ec 20          	sub    $0x20,%rsp
    4775:	48 89 7d f8          	mov    %rdi,-0x8(%rbp)
    4779:	48 89 75 f0          	mov    %rsi,-0x10(%rbp)
    477d:	48 89 55 e8          	mov    %rdx,-0x18(%rbp)
    4781:	48 8b 55 e8          	mov    -0x18(%rbp),%rdx
    4785:	48 8b 4d f0          	mov    -0x10(%rbp),%rcx
    4789:	48 8b 45 f8          	mov    -0x8(%rbp),%rax
    478d:	48 89 ce             	mov    %rcx,%rsi
    4790:	48 89 c7             	mov    %rax,%rdi
    4793:	e8 c8 07 00 00       	callq  4f60 <_ZN9__gnu_cxx13new_allocatorIiE10deallocateEPim>
    4798:	90                   	nop
    4799:	c9                   	leaveq 
    479a:	c3                   	retq   

000000000000479b <_ZSt8_DestroyIPiEvT_S1_>:
    479b:	55                   	push   %rbp
    479c:	48 89 e5             	mov    %rsp,%rbp
    479f:	48 83 ec 10          	sub    $0x10,%rsp
    47a3:	48 89 7d f8          	mov    %rdi,-0x8(%rbp)
    47a7:	48 89 75 f0          	mov    %rsi,-0x10(%rbp)
    47ab:	48 8b 55 f0          	mov    -0x10(%rbp),%rdx
    47af:	48 8b 45 f8          	mov    -0x8(%rbp),%rax
    47b3:	48 89 d6             	mov    %rdx,%rsi
    47b6:	48 89 c7             	mov    %rax,%rdi
    47b9:	e8 c5 07 00 00       	callq  4f83 <_ZNSt12_Destroy_auxILb1EE9__destroyIPiEEvT_S3_>
    47be:	90                   	nop
    47bf:	c9                   	leaveq 
    47c0:	c3                   	retq   
    47c1:	90                   	nop

00000000000047c2 <_ZN9__gnu_cxx13new_allocatorIiE9constructIiJjEEEvPT_DpOT0_>:
    47c2:	55                   	push   %rbp
    47c3:	48 89 e5             	mov    %rsp,%rbp
    47c6:	53                   	push   %rbx
    47c7:	48 83 ec 28          	sub    $0x28,%rsp
    47cb:	48 89 7d e8          	mov    %rdi,-0x18(%rbp)
    47cf:	48 89 75 e0          	mov    %rsi,-0x20(%rbp)
    47d3:	48 89 55 d8          	mov    %rdx,-0x28(%rbp)
    47d7:	48 8b 45 d8          	mov    -0x28(%rbp),%rax
    47db:	48 89 c7             	mov    %rax,%rdi
    47de:	e8 39 f5 ff ff       	callq  3d1c <_ZSt7forwardIjEOT_RNSt16remove_referenceIS0_E4typeE>
    47e3:	8b 00                	mov    (%rax),%eax
    47e5:	89 c3                	mov    %eax,%ebx
    47e7:	48 8b 45 e0          	mov    -0x20(%rbp),%rax
    47eb:	48 89 c6             	mov    %rax,%rsi
    47ee:	bf 04 00 00 00       	mov    $0x4,%edi
    47f3:	e8 dd e8 ff ff       	callq  30d5 <_ZnwmPv>
    47f8:	89 18                	mov    %ebx,(%rax)
    47fa:	90                   	nop
    47fb:	48 83 c4 28          	add    $0x28,%rsp
    47ff:	5b                   	pop    %rbx
    4800:	5d                   	pop    %rbp
    4801:	c3                   	retq   

0000000000004802 <_ZN9__gnu_cxx17__normal_iteratorIPiSt6vectorIiSaIiEEEC1ERKS1_>:
    4802:	55                   	push   %rbp
    4803:	48 89 e5             	mov    %rsp,%rbp
    4806:	48 89 7d f8          	mov    %rdi,-0x8(%rbp)
    480a:	48 89 75 f0          	mov    %rsi,-0x10(%rbp)
    480e:	48 8b 45 f0          	mov    -0x10(%rbp),%rax
    4812:	48 8b 10             	mov    (%rax),%rdx
    4815:	48 8b 45 f8          	mov    -0x8(%rbp),%rax
    4819:	48 89 10             	mov    %rdx,(%rax)
    481c:	90                   	nop
    481d:	5d                   	pop    %rbp
    481e:	c3                   	retq   
    481f:	90                   	nop

0000000000004820 <_ZNKSt6vectorIiSaIiEE12_M_check_lenEmPKc>:
    4820:	55                   	push   %rbp
    4821:	48 89 e5             	mov    %rsp,%rbp
    4824:	53                   	push   %rbx
    4825:	48 83 ec 48          	sub    $0x48,%rsp
    4829:	48 89 7d c8          	mov    %rdi,-0x38(%rbp)
    482d:	48 89 75 c0          	mov    %rsi,-0x40(%rbp)
    4831:	48 89 55 b8          	mov    %rdx,-0x48(%rbp)
    4835:	64 48 8b 04 25 28 00 	mov    %fs:0x28,%rax
    483c:	00 00 
    483e:	48 89 45 e8          	mov    %rax,-0x18(%rbp)
    4842:	31 c0                	xor    %eax,%eax
    4844:	48 8b 45 c8          	mov    -0x38(%rbp),%rax
    4848:	48 89 c7             	mov    %rax,%rdi
    484b:	e8 42 07 00 00       	callq  4f92 <_ZNKSt6vectorIiSaIiEE8max_sizeEv>
    4850:	48 89 c3             	mov    %rax,%rbx
    4853:	48 8b 45 c8          	mov    -0x38(%rbp),%rax
    4857:	48 89 c7             	mov    %rax,%rdi
    485a:	e8 fd f9 ff ff       	callq  425c <_ZNKSt6vectorIiSaIiEE4sizeEv>
    485f:	48 29 c3             	sub    %rax,%rbx
    4862:	48 89 da             	mov    %rbx,%rdx
    4865:	48 8b 45 c0          	mov    -0x40(%rbp),%rax
    4869:	48 39 c2             	cmp    %rax,%rdx
    486c:	0f 92 c0             	setb   %al
    486f:	84 c0                	test   %al,%al
    4871:	74 0c                	je     487f <_ZNKSt6vectorIiSaIiEE12_M_check_lenEmPKc+0x5f>
    4873:	48 8b 45 b8          	mov    -0x48(%rbp),%rax
    4877:	48 89 c7             	mov    %rax,%rdi
    487a:	e8 11 d8 ff ff       	callq  2090 <_ZSt20__throw_length_errorPKc@plt>
    487f:	48 8b 45 c8          	mov    -0x38(%rbp),%rax
    4883:	48 89 c7             	mov    %rax,%rdi
    4886:	e8 d1 f9 ff ff       	callq  425c <_ZNKSt6vectorIiSaIiEE4sizeEv>
    488b:	48 89 c3             	mov    %rax,%rbx
    488e:	48 8b 45 c8          	mov    -0x38(%rbp),%rax
    4892:	48 89 c7             	mov    %rax,%rdi
    4895:	e8 c2 f9 ff ff       	callq  425c <_ZNKSt6vectorIiSaIiEE4sizeEv>
    489a:	48 89 45 d8          	mov    %rax,-0x28(%rbp)
    489e:	48 8d 55 c0          	lea    -0x40(%rbp),%rdx
    48a2:	48 8d 45 d8          	lea    -0x28(%rbp),%rax
    48a6:	48 89 d6             	mov    %rdx,%rsi
    48a9:	48 89 c7             	mov    %rax,%rdi
    48ac:	e8 9f 05 00 00       	callq  4e50 <_ZSt3maxImERKT_S2_S2_>
    48b1:	48 8b 00             	mov    (%rax),%rax
    48b4:	48 01 d8             	add    %rbx,%rax
    48b7:	48 89 45 e0          	mov    %rax,-0x20(%rbp)
    48bb:	48 8b 45 c8          	mov    -0x38(%rbp),%rax
    48bf:	48 89 c7             	mov    %rax,%rdi
    48c2:	e8 95 f9 ff ff       	callq  425c <_ZNKSt6vectorIiSaIiEE4sizeEv>
    48c7:	48 39 45 e0          	cmp    %rax,-0x20(%rbp)
    48cb:	72 12                	jb     48df <_ZNKSt6vectorIiSaIiEE12_M_check_lenEmPKc+0xbf>
    48cd:	48 8b 45 c8          	mov    -0x38(%rbp),%rax
    48d1:	48 89 c7             	mov    %rax,%rdi
    48d4:	e8 b9 06 00 00       	callq  4f92 <_ZNKSt6vectorIiSaIiEE8max_sizeEv>
    48d9:	48 39 45 e0          	cmp    %rax,-0x20(%rbp)
    48dd:	76 0e                	jbe    48ed <_ZNKSt6vectorIiSaIiEE12_M_check_lenEmPKc+0xcd>
    48df:	48 8b 45 c8          	mov    -0x38(%rbp),%rax
    48e3:	48 89 c7             	mov    %rax,%rdi
    48e6:	e8 a7 06 00 00       	callq  4f92 <_ZNKSt6vectorIiSaIiEE8max_sizeEv>
    48eb:	eb 04                	jmp    48f1 <_ZNKSt6vectorIiSaIiEE12_M_check_lenEmPKc+0xd1>
    48ed:	48 8b 45 e0          	mov    -0x20(%rbp),%rax
    48f1:	48 8b 4d e8          	mov    -0x18(%rbp),%rcx
    48f5:	64 48 33 0c 25 28 00 	xor    %fs:0x28,%rcx
    48fc:	00 00 
    48fe:	74 05                	je     4905 <_ZNKSt6vectorIiSaIiEE12_M_check_lenEmPKc+0xe5>
    4900:	e8 6b d8 ff ff       	callq  2170 <__stack_chk_fail@plt>
    4905:	48 83 c4 48          	add    $0x48,%rsp
    4909:	5b                   	pop    %rbx
    490a:	5d                   	pop    %rbp
    490b:	c3                   	retq   

000000000000490c <_ZNSt6vectorIiSaIiEE5beginEv>:
    490c:	55                   	push   %rbp
    490d:	48 89 e5             	mov    %rsp,%rbp
    4910:	48 83 ec 20          	sub    $0x20,%rsp
    4914:	48 89 7d e8          	mov    %rdi,-0x18(%rbp)
    4918:	64 48 8b 04 25 28 00 	mov    %fs:0x28,%rax
    491f:	00 00 
    4921:	48 89 45 f8          	mov    %rax,-0x8(%rbp)
    4925:	31 c0                	xor    %eax,%eax
    4927:	48 8b 55 e8          	mov    -0x18(%rbp),%rdx
    492b:	48 8d 45 f0          	lea    -0x10(%rbp),%rax
    492f:	48 89 d6             	mov    %rdx,%rsi
    4932:	48 89 c7             	mov    %rax,%rdi
    4935:	e8 c8 fe ff ff       	callq  4802 <_ZN9__gnu_cxx17__normal_iteratorIPiSt6vectorIiSaIiEEEC1ERKS1_>
    493a:	48 8b 45 f0          	mov    -0x10(%rbp),%rax
    493e:	48 8b 4d f8          	mov    -0x8(%rbp),%rcx
    4942:	64 48 33 0c 25 28 00 	xor    %fs:0x28,%rcx
    4949:	00 00 
    494b:	74 05                	je     4952 <_ZNSt6vectorIiSaIiEE5beginEv+0x46>
    494d:	e8 1e d8 ff ff       	callq  2170 <__stack_chk_fail@plt>
    4952:	c9                   	leaveq 
    4953:	c3                   	retq   

0000000000004954 <_ZN9__gnu_cxxmiIPiSt6vectorIiSaIiEEEENS_17__normal_iteratorIT_T0_E15difference_typeERKS8_SB_>:
    4954:	55                   	push   %rbp
    4955:	48 89 e5             	mov    %rsp,%rbp
    4958:	53                   	push   %rbx
    4959:	48 83 ec 18          	sub    $0x18,%rsp
    495d:	48 89 7d e8          	mov    %rdi,-0x18(%rbp)
    4961:	48 89 75 e0          	mov    %rsi,-0x20(%rbp)
    4965:	48 8b 45 e8          	mov    -0x18(%rbp),%rax
    4969:	48 89 c7             	mov    %rax,%rdi
    496c:	e8 ab 00 00 00       	callq  4a1c <_ZNK9__gnu_cxx17__normal_iteratorIPiSt6vectorIiSaIiEEE4baseEv>
    4971:	48 8b 18             	mov    (%rax),%rbx
    4974:	48 8b 45 e0          	mov    -0x20(%rbp),%rax
    4978:	48 89 c7             	mov    %rax,%rdi
    497b:	e8 9c 00 00 00       	callq  4a1c <_ZNK9__gnu_cxx17__normal_iteratorIPiSt6vectorIiSaIiEEE4baseEv>
    4980:	48 8b 00             	mov    (%rax),%rax
    4983:	48 29 c3             	sub    %rax,%rbx
    4986:	48 89 d8             	mov    %rbx,%rax
    4989:	48 c1 f8 02          	sar    $0x2,%rax
    498d:	48 83 c4 18          	add    $0x18,%rsp
    4991:	5b                   	pop    %rbx
    4992:	5d                   	pop    %rbp
    4993:	c3                   	retq   

0000000000004994 <_ZNSt12_Vector_baseIiSaIiEE11_M_allocateEm>:
    4994:	55                   	push   %rbp
    4995:	48 89 e5             	mov    %rsp,%rbp
    4998:	48 83 ec 10          	sub    $0x10,%rsp
    499c:	48 89 7d f8          	mov    %rdi,-0x8(%rbp)
    49a0:	48 89 75 f0          	mov    %rsi,-0x10(%rbp)
    49a4:	48 83 7d f0 00       	cmpq   $0x0,-0x10(%rbp)
    49a9:	74 15                	je     49c0 <_ZNSt12_Vector_baseIiSaIiEE11_M_allocateEm+0x2c>
    49ab:	48 8b 45 f8          	mov    -0x8(%rbp),%rax
    49af:	48 8b 55 f0          	mov    -0x10(%rbp),%rdx
    49b3:	48 89 d6             	mov    %rdx,%rsi
    49b6:	48 89 c7             	mov    %rax,%rdi
    49b9:	e8 f6 05 00 00       	callq  4fb4 <_ZNSt16allocator_traitsISaIiEE8allocateERS0_m>
    49be:	eb 05                	jmp    49c5 <_ZNSt12_Vector_baseIiSaIiEE11_M_allocateEm+0x31>
    49c0:	b8 00 00 00 00       	mov    $0x0,%eax
    49c5:	c9                   	leaveq 
    49c6:	c3                   	retq   

00000000000049c7 <_ZNSt6vectorIiSaIiEE11_S_relocateEPiS2_S2_RS0_>:
    49c7:	55                   	push   %rbp
    49c8:	48 89 e5             	mov    %rsp,%rbp
    49cb:	48 83 ec 30          	sub    $0x30,%rsp
    49cf:	48 89 7d e8          	mov    %rdi,-0x18(%rbp)
    49d3:	48 89 75 e0          	mov    %rsi,-0x20(%rbp)
    49d7:	48 89 55 d8          	mov    %rdx,-0x28(%rbp)
    49db:	48 89 4d d0          	mov    %rcx,-0x30(%rbp)
    49df:	64 48 8b 04 25 28 00 	mov    %fs:0x28,%rax
    49e6:	00 00 
    49e8:	48 89 45 f8          	mov    %rax,-0x8(%rbp)
    49ec:	31 c0                	xor    %eax,%eax
    49ee:	48 8b 4d d0          	mov    -0x30(%rbp),%rcx
    49f2:	48 8b 55 d8          	mov    -0x28(%rbp),%rdx
    49f6:	48 8b 75 e0          	mov    -0x20(%rbp),%rsi
    49fa:	48 8b 45 e8          	mov    -0x18(%rbp),%rax
    49fe:	48 89 c7             	mov    %rax,%rdi
    4a01:	e8 d8 05 00 00       	callq  4fde <_ZNSt6vectorIiSaIiEE14_S_do_relocateEPiS2_S2_RS0_St17integral_constantIbLb1EE>
    4a06:	48 8b 7d f8          	mov    -0x8(%rbp),%rdi
    4a0a:	64 48 33 3c 25 28 00 	xor    %fs:0x28,%rdi
    4a11:	00 00 
    4a13:	74 05                	je     4a1a <_ZNSt6vectorIiSaIiEE11_S_relocateEPiS2_S2_RS0_+0x53>
    4a15:	e8 56 d7 ff ff       	callq  2170 <__stack_chk_fail@plt>
    4a1a:	c9                   	leaveq 
    4a1b:	c3                   	retq   

0000000000004a1c <_ZNK9__gnu_cxx17__normal_iteratorIPiSt6vectorIiSaIiEEE4baseEv>:
    4a1c:	55                   	push   %rbp
    4a1d:	48 89 e5             	mov    %rsp,%rbp
    4a20:	48 89 7d f8          	mov    %rdi,-0x8(%rbp)
    4a24:	48 8b 45 f8          	mov    -0x8(%rbp),%rax
    4a28:	5d                   	pop    %rbp
    4a29:	c3                   	retq   

0000000000004a2a <_ZSt34__uninitialized_move_if_noexcept_aIPiS0_SaIiEET0_T_S3_S2_RT1_>:
    4a2a:	55                   	push   %rbp
    4a2b:	48 89 e5             	mov    %rsp,%rbp
    4a2e:	53                   	push   %rbx
    4a2f:	48 83 ec 28          	sub    $0x28,%rsp
    4a33:	48 89 7d e8          	mov    %rdi,-0x18(%rbp)
    4a37:	48 89 75 e0          	mov    %rsi,-0x20(%rbp)
    4a3b:	48 89 55 d8          	mov    %rdx,-0x28(%rbp)
    4a3f:	48 89 4d d0          	mov    %rcx,-0x30(%rbp)
    4a43:	48 8b 45 e0          	mov    -0x20(%rbp),%rax
    4a47:	48 89 c7             	mov    %rax,%rdi
    4a4a:	e8 c1 05 00 00       	callq  5010 <_ZSt32__make_move_if_noexcept_iteratorIiSt13move_iteratorIPiEET0_PT_>
    4a4f:	48 89 c3             	mov    %rax,%rbx
    4a52:	48 8b 45 e8          	mov    -0x18(%rbp),%rax
    4a56:	48 89 c7             	mov    %rax,%rdi
    4a59:	e8 b2 05 00 00       	callq  5010 <_ZSt32__make_move_if_noexcept_iteratorIiSt13move_iteratorIPiEET0_PT_>
    4a5e:	48 89 c7             	mov    %rax,%rdi
    4a61:	48 8b 55 d0          	mov    -0x30(%rbp),%rdx
    4a65:	48 8b 45 d8          	mov    -0x28(%rbp),%rax
    4a69:	48 89 d1             	mov    %rdx,%rcx
    4a6c:	48 89 c2             	mov    %rax,%rdx
    4a6f:	48 89 de             	mov    %rbx,%rsi
    4a72:	e8 e1 05 00 00       	callq  5058 <_ZSt22__uninitialized_copy_aISt13move_iteratorIPiES1_iET0_T_S4_S3_RSaIT1_E>
    4a77:	48 83 c4 28          	add    $0x28,%rsp
    4a7b:	5b                   	pop    %rbx
    4a7c:	5d                   	pop    %rbp
    4a7d:	c3                   	retq   

0000000000004a7e <_ZNSt16allocator_traitsISaIiEE7destroyIiEEvRS0_PT_>:
    4a7e:	55                   	push   %rbp
    4a7f:	48 89 e5             	mov    %rsp,%rbp
    4a82:	48 83 ec 10          	sub    $0x10,%rsp
    4a86:	48 89 7d f8          	mov    %rdi,-0x8(%rbp)
    4a8a:	48 89 75 f0          	mov    %rsi,-0x10(%rbp)
    4a8e:	48 8b 55 f0          	mov    -0x10(%rbp),%rdx
    4a92:	48 8b 45 f8          	mov    -0x8(%rbp),%rax
    4a96:	48 89 d6             	mov    %rdx,%rsi
    4a99:	48 89 c7             	mov    %rax,%rdi
    4a9c:	e8 e9 05 00 00       	callq  508a <_ZN9__gnu_cxx13new_allocatorIiE7destroyIiEEvPT_>
    4aa1:	90                   	nop
    4aa2:	c9                   	leaveq 
    4aa3:	c3                   	retq   

0000000000004aa4 <_ZN9__gnu_cxx13new_allocatorIiEC1ERKS1_>:
    4aa4:	55                   	push   %rbp
    4aa5:	48 89 e5             	mov    %rsp,%rbp
    4aa8:	48 89 7d f8          	mov    %rdi,-0x8(%rbp)
    4aac:	48 89 75 f0          	mov    %rsi,-0x10(%rbp)
    4ab0:	90                   	nop
    4ab1:	5d                   	pop    %rbp
    4ab2:	c3                   	retq   
    4ab3:	90                   	nop

0000000000004ab4 <_ZNKSt6vectorIiSaIiEE8capacityEv>:
    4ab4:	55                   	push   %rbp
    4ab5:	48 89 e5             	mov    %rsp,%rbp
    4ab8:	48 89 7d f8          	mov    %rdi,-0x8(%rbp)
    4abc:	48 8b 45 f8          	mov    -0x8(%rbp),%rax
    4ac0:	48 8b 50 10          	mov    0x10(%rax),%rdx
    4ac4:	48 8b 45 f8          	mov    -0x8(%rbp),%rax
    4ac8:	48 8b 00             	mov    (%rax),%rax
    4acb:	48 29 c2             	sub    %rax,%rdx
    4ace:	48 89 d0             	mov    %rdx,%rax
    4ad1:	48 c1 f8 02          	sar    $0x2,%rax
    4ad5:	5d                   	pop    %rbp
    4ad6:	c3                   	retq   
    4ad7:	90                   	nop

0000000000004ad8 <_ZNSt6vectorIiSaIiEEC1EmRKiRKS0_>:
    4ad8:	55                   	push   %rbp
    4ad9:	48 89 e5             	mov    %rsp,%rbp
    4adc:	53                   	push   %rbx
    4add:	48 83 ec 28          	sub    $0x28,%rsp
    4ae1:	48 89 7d e8          	mov    %rdi,-0x18(%rbp)
    4ae5:	48 89 75 e0          	mov    %rsi,-0x20(%rbp)
    4ae9:	48 89 55 d8          	mov    %rdx,-0x28(%rbp)
    4aed:	48 89 4d d0          	mov    %rcx,-0x30(%rbp)
    4af1:	48 8b 5d e8          	mov    -0x18(%rbp),%rbx
    4af5:	48 8b 55 d0          	mov    -0x30(%rbp),%rdx
    4af9:	48 8b 45 e0          	mov    -0x20(%rbp),%rax
    4afd:	48 89 d6             	mov    %rdx,%rsi
    4b00:	48 89 c7             	mov    %rax,%rdi
    4b03:	e8 91 05 00 00       	callq  5099 <_ZNSt6vectorIiSaIiEE17_S_check_init_lenEmRKS0_>
    4b08:	48 89 c1             	mov    %rax,%rcx
    4b0b:	48 8b 45 d0          	mov    -0x30(%rbp),%rax
    4b0f:	48 89 c2             	mov    %rax,%rdx
    4b12:	48 89 ce             	mov    %rcx,%rsi
    4b15:	48 89 df             	mov    %rbx,%rdi
    4b18:	e8 bd f7 ff ff       	callq  42da <_ZNSt12_Vector_baseIiSaIiEEC1EmRKS0_>
    4b1d:	48 8b 55 d8          	mov    -0x28(%rbp),%rdx
    4b21:	48 8b 4d e0          	mov    -0x20(%rbp),%rcx
    4b25:	48 8b 45 e8          	mov    -0x18(%rbp),%rax
    4b29:	48 89 ce             	mov    %rcx,%rsi
    4b2c:	48 89 c7             	mov    %rax,%rdi
    4b2f:	e8 e6 05 00 00       	callq  511a <_ZNSt6vectorIiSaIiEE18_M_fill_initializeEmRKi>
    4b34:	eb 1a                	jmp    4b50 <_ZNSt6vectorIiSaIiEEC1EmRKiRKS0_+0x78>
    4b36:	48 89 c3             	mov    %rax,%rbx
    4b39:	48 8b 45 e8          	mov    -0x18(%rbp),%rax
    4b3d:	48 89 c7             	mov    %rax,%rdi
    4b40:	e8 d9 e9 ff ff       	callq  351e <_ZNSt12_Vector_baseIiSaIiEED1Ev>
    4b45:	48 89 d8             	mov    %rbx,%rax
    4b48:	48 89 c7             	mov    %rax,%rdi
    4b4b:	e8 e0 d6 ff ff       	callq  2230 <_Unwind_Resume@plt>
    4b50:	48 83 c4 28          	add    $0x28,%rsp
    4b54:	5b                   	pop    %rbx
    4b55:	5d                   	pop    %rbp
    4b56:	c3                   	retq   
    4b57:	90                   	nop

0000000000004b58 <_ZNSt12_Vector_baseIiSaIiEE17_Vector_impl_data12_M_swap_dataERS2_>:
    4b58:	55                   	push   %rbp
    4b59:	48 89 e5             	mov    %rsp,%rbp
    4b5c:	48 83 ec 30          	sub    $0x30,%rsp
    4b60:	48 89 7d d8          	mov    %rdi,-0x28(%rbp)
    4b64:	48 89 75 d0          	mov    %rsi,-0x30(%rbp)
    4b68:	64 48 8b 04 25 28 00 	mov    %fs:0x28,%rax
    4b6f:	00 00 
    4b71:	48 89 45 f8          	mov    %rax,-0x8(%rbp)
    4b75:	31 c0                	xor    %eax,%eax
    4b77:	48 8d 45 e0          	lea    -0x20(%rbp),%rax
    4b7b:	48 89 c7             	mov    %rax,%rdi
    4b7e:	e8 f1 f0 ff ff       	callq  3c74 <_ZNSt12_Vector_baseIiSaIiEE17_Vector_impl_dataC1Ev>
    4b83:	48 8b 55 d8          	mov    -0x28(%rbp),%rdx
    4b87:	48 8d 45 e0          	lea    -0x20(%rbp),%rax
    4b8b:	48 89 d6             	mov    %rdx,%rsi
    4b8e:	48 89 c7             	mov    %rax,%rdi
    4b91:	e8 ca 05 00 00       	callq  5160 <_ZNSt12_Vector_baseIiSaIiEE17_Vector_impl_data12_M_copy_dataERKS2_>
    4b96:	48 8b 55 d0          	mov    -0x30(%rbp),%rdx
    4b9a:	48 8b 45 d8          	mov    -0x28(%rbp),%rax
    4b9e:	48 89 d6             	mov    %rdx,%rsi
    4ba1:	48 89 c7             	mov    %rax,%rdi
    4ba4:	e8 b7 05 00 00       	callq  5160 <_ZNSt12_Vector_baseIiSaIiEE17_Vector_impl_data12_M_copy_dataERKS2_>
    4ba9:	48 8d 55 e0          	lea    -0x20(%rbp),%rdx
    4bad:	48 8b 45 d0          	mov    -0x30(%rbp),%rax
    4bb1:	48 89 d6             	mov    %rdx,%rsi
    4bb4:	48 89 c7             	mov    %rax,%rdi
    4bb7:	e8 a4 05 00 00       	callq  5160 <_ZNSt12_Vector_baseIiSaIiEE17_Vector_impl_data12_M_copy_dataERKS2_>
    4bbc:	90                   	nop
    4bbd:	48 8b 45 f8          	mov    -0x8(%rbp),%rax
    4bc1:	64 48 33 04 25 28 00 	xor    %fs:0x28,%rax
    4bc8:	00 00 
    4bca:	74 05                	je     4bd1 <_ZNSt12_Vector_baseIiSaIiEE17_Vector_impl_data12_M_swap_dataERS2_+0x79>
    4bcc:	e8 9f d5 ff ff       	callq  2170 <__stack_chk_fail@plt>
    4bd1:	c9                   	leaveq 
    4bd2:	c3                   	retq   

0000000000004bd3 <_ZSt4fillIN9__gnu_cxx17__normal_iteratorIPiSt6vectorIiSaIiEEEEiEvT_S7_RKT0_>:
    4bd3:	55                   	push   %rbp
    4bd4:	48 89 e5             	mov    %rsp,%rbp
    4bd7:	53                   	push   %rbx
    4bd8:	48 83 ec 28          	sub    $0x28,%rsp
    4bdc:	48 89 7d e8          	mov    %rdi,-0x18(%rbp)
    4be0:	48 89 75 e0          	mov    %rsi,-0x20(%rbp)
    4be4:	48 89 55 d8          	mov    %rdx,-0x28(%rbp)
    4be8:	48 8b 45 e0          	mov    -0x20(%rbp),%rax
    4bec:	48 89 c7             	mov    %rax,%rdi
    4bef:	e8 a9 05 00 00       	callq  519d <_ZSt12__niter_baseIPiSt6vectorIiSaIiEEET_N9__gnu_cxx17__normal_iteratorIS4_T0_EE>
    4bf4:	48 89 c3             	mov    %rax,%rbx
    4bf7:	48 8b 45 e8          	mov    -0x18(%rbp),%rax
    4bfb:	48 89 c7             	mov    %rax,%rdi
    4bfe:	e8 9a 05 00 00       	callq  519d <_ZSt12__niter_baseIPiSt6vectorIiSaIiEEET_N9__gnu_cxx17__normal_iteratorIS4_T0_EE>
    4c03:	48 89 c1             	mov    %rax,%rcx
    4c06:	48 8b 45 d8          	mov    -0x28(%rbp),%rax
    4c0a:	48 89 c2             	mov    %rax,%rdx
    4c0d:	48 89 de             	mov    %rbx,%rsi
    4c10:	48 89 cf             	mov    %rcx,%rdi
    4c13:	e8 a2 05 00 00       	callq  51ba <_ZSt8__fill_aIPiiEN9__gnu_cxx11__enable_ifIXsrSt11__is_scalarIT0_E7__valueEvE6__typeET_S8_RKS4_>
    4c18:	90                   	nop
    4c19:	48 83 c4 28          	add    $0x28,%rsp
    4c1d:	5b                   	pop    %rbx
    4c1e:	5d                   	pop    %rbp
    4c1f:	c3                   	retq   

0000000000004c20 <_ZSt24__uninitialized_fill_n_aIPimiiET_S1_T0_RKT1_RSaIT2_E>:
    4c20:	55                   	push   %rbp
    4c21:	48 89 e5             	mov    %rsp,%rbp
    4c24:	48 83 ec 20          	sub    $0x20,%rsp
    4c28:	48 89 7d f8          	mov    %rdi,-0x8(%rbp)
    4c2c:	48 89 75 f0          	mov    %rsi,-0x10(%rbp)
    4c30:	48 89 55 e8          	mov    %rdx,-0x18(%rbp)
    4c34:	48 89 4d e0          	mov    %rcx,-0x20(%rbp)
    4c38:	48 8b 55 e8          	mov    -0x18(%rbp),%rdx
    4c3c:	48 8b 4d f0          	mov    -0x10(%rbp),%rcx
    4c40:	48 8b 45 f8          	mov    -0x8(%rbp),%rax
    4c44:	48 89 ce             	mov    %rcx,%rsi
    4c47:	48 89 c7             	mov    %rax,%rdi
    4c4a:	e8 a1 05 00 00       	callq  51f0 <_ZSt20uninitialized_fill_nIPimiET_S1_T0_RKT1_>
    4c4f:	c9                   	leaveq 
    4c50:	c3                   	retq   
    4c51:	90                   	nop

0000000000004c52 <_ZNSt6vectorIiSaIiEE15_M_erase_at_endEPi>:
    4c52:	55                   	push   %rbp
    4c53:	48 89 e5             	mov    %rsp,%rbp
    4c56:	48 83 ec 20          	sub    $0x20,%rsp
    4c5a:	48 89 7d e8          	mov    %rdi,-0x18(%rbp)
    4c5e:	48 89 75 e0          	mov    %rsi,-0x20(%rbp)
    4c62:	48 8b 45 e8          	mov    -0x18(%rbp),%rax
    4c66:	48 8b 40 08          	mov    0x8(%rax),%rax
    4c6a:	48 2b 45 e0          	sub    -0x20(%rbp),%rax
    4c6e:	48 c1 f8 02          	sar    $0x2,%rax
    4c72:	48 89 45 f8          	mov    %rax,-0x8(%rbp)
    4c76:	48 83 7d f8 00       	cmpq   $0x0,-0x8(%rbp)
    4c7b:	74 32                	je     4caf <_ZNSt6vectorIiSaIiEE15_M_erase_at_endEPi+0x5d>
    4c7d:	48 8b 45 e8          	mov    -0x18(%rbp),%rax
    4c81:	48 89 c7             	mov    %rax,%rdi
    4c84:	e8 5b f0 ff ff       	callq  3ce4 <_ZNSt12_Vector_baseIiSaIiEE19_M_get_Tp_allocatorEv>
    4c89:	48 89 c2             	mov    %rax,%rdx
    4c8c:	48 8b 45 e8          	mov    -0x18(%rbp),%rax
    4c90:	48 8b 48 08          	mov    0x8(%rax),%rcx
    4c94:	48 8b 45 e0          	mov    -0x20(%rbp),%rax
    4c98:	48 89 ce             	mov    %rcx,%rsi
    4c9b:	48 89 c7             	mov    %rax,%rdi
    4c9e:	e8 4f f0 ff ff       	callq  3cf2 <_ZSt8_DestroyIPiiEvT_S1_RSaIT0_E>
    4ca3:	48 8b 45 e8          	mov    -0x18(%rbp),%rax
    4ca7:	48 8b 55 e0          	mov    -0x20(%rbp),%rdx
    4cab:	48 89 50 08          	mov    %rdx,0x8(%rax)
    4caf:	90                   	nop
    4cb0:	c9                   	leaveq 
    4cb1:	c3                   	retq   

0000000000004cb2 <_ZSt6fill_nIPimiET_S1_T0_RKT1_>:
    4cb2:	55                   	push   %rbp
    4cb3:	48 89 e5             	mov    %rsp,%rbp
    4cb6:	48 83 ec 20          	sub    $0x20,%rsp
    4cba:	48 89 7d f8          	mov    %rdi,-0x8(%rbp)
    4cbe:	48 89 75 f0          	mov    %rsi,-0x10(%rbp)
    4cc2:	48 89 55 e8          	mov    %rdx,-0x18(%rbp)
    4cc6:	48 8b 45 f8          	mov    -0x8(%rbp),%rax
    4cca:	48 89 c7             	mov    %rax,%rdi
    4ccd:	e8 4f 05 00 00       	callq  5221 <_ZSt12__niter_baseIPiET_S1_>
    4cd2:	48 89 c1             	mov    %rax,%rcx
    4cd5:	48 8b 55 e8          	mov    -0x18(%rbp),%rdx
    4cd9:	48 8b 45 f0          	mov    -0x10(%rbp),%rax
    4cdd:	48 89 c6             	mov    %rax,%rsi
    4ce0:	48 89 cf             	mov    %rcx,%rdi
    4ce3:	e8 47 05 00 00       	callq  522f <_ZSt10__fill_n_aIPimiEN9__gnu_cxx11__enable_ifIXsrSt11__is_scalarIT1_E7__valueET_E6__typeES6_T0_RKS4_>
    4ce8:	48 89 c2             	mov    %rax,%rdx
    4ceb:	48 8d 45 f8          	lea    -0x8(%rbp),%rax
    4cef:	48 89 d6             	mov    %rdx,%rsi
    4cf2:	48 89 c7             	mov    %rax,%rdi
    4cf5:	e8 78 05 00 00       	callq  5272 <_ZSt12__niter_wrapIPiET_RKS1_S1_>
    4cfa:	c9                   	leaveq 
    4cfb:	c3                   	retq   

0000000000004cfc <_ZNSt16allocator_traitsISaIiEE37select_on_container_copy_constructionERKS0_>:
    4cfc:	55                   	push   %rbp
    4cfd:	48 89 e5             	mov    %rsp,%rbp
    4d00:	48 83 ec 10          	sub    $0x10,%rsp
    4d04:	48 89 7d f8          	mov    %rdi,-0x8(%rbp)
    4d08:	48 89 75 f0          	mov    %rsi,-0x10(%rbp)
    4d0c:	48 8b 55 f0          	mov    -0x10(%rbp),%rdx
    4d10:	48 8b 45 f8          	mov    -0x8(%rbp),%rax
    4d14:	48 89 d6             	mov    %rdx,%rsi
    4d17:	48 89 c7             	mov    %rax,%rdi
    4d1a:	e8 bb f3 ff ff       	callq  40da <_ZNSaIiEC1ERKS_>
    4d1f:	48 8b 45 f8          	mov    -0x8(%rbp),%rax
    4d23:	c9                   	leaveq 
    4d24:	c3                   	retq   
    4d25:	90                   	nop

0000000000004d26 <_ZNSt12_Vector_baseIiSaIiEE12_Vector_implC1ERKS0_>:
    4d26:	55                   	push   %rbp
    4d27:	48 89 e5             	mov    %rsp,%rbp
    4d2a:	48 83 ec 10          	sub    $0x10,%rsp
    4d2e:	48 89 7d f8          	mov    %rdi,-0x8(%rbp)
    4d32:	48 89 75 f0          	mov    %rsi,-0x10(%rbp)
    4d36:	48 8b 55 f0          	mov    -0x10(%rbp),%rdx
    4d3a:	48 8b 45 f8          	mov    -0x8(%rbp),%rax
    4d3e:	48 89 d6             	mov    %rdx,%rsi
    4d41:	48 89 c7             	mov    %rax,%rdi
    4d44:	e8 91 f3 ff ff       	callq  40da <_ZNSaIiEC1ERKS_>
    4d49:	48 8b 45 f8          	mov    -0x8(%rbp),%rax
    4d4d:	48 89 c7             	mov    %rax,%rdi
    4d50:	e8 1f ef ff ff       	callq  3c74 <_ZNSt12_Vector_baseIiSaIiEE17_Vector_impl_dataC1Ev>
    4d55:	90                   	nop
    4d56:	c9                   	leaveq 
    4d57:	c3                   	retq   

0000000000004d58 <_ZNSt12_Vector_baseIiSaIiEE17_M_create_storageEm>:
    4d58:	55                   	push   %rbp
    4d59:	48 89 e5             	mov    %rsp,%rbp
    4d5c:	48 83 ec 10          	sub    $0x10,%rsp
    4d60:	48 89 7d f8          	mov    %rdi,-0x8(%rbp)
    4d64:	48 89 75 f0          	mov    %rsi,-0x10(%rbp)
    4d68:	48 8b 55 f0          	mov    -0x10(%rbp),%rdx
    4d6c:	48 8b 45 f8          	mov    -0x8(%rbp),%rax
    4d70:	48 89 d6             	mov    %rdx,%rsi
    4d73:	48 89 c7             	mov    %rax,%rdi
    4d76:	e8 19 fc ff ff       	callq  4994 <_ZNSt12_Vector_baseIiSaIiEE11_M_allocateEm>
    4d7b:	48 8b 55 f8          	mov    -0x8(%rbp),%rdx
    4d7f:	48 89 02             	mov    %rax,(%rdx)
    4d82:	48 8b 45 f8          	mov    -0x8(%rbp),%rax
    4d86:	48 8b 10             	mov    (%rax),%rdx
    4d89:	48 8b 45 f8          	mov    -0x8(%rbp),%rax
    4d8d:	48 89 50 08          	mov    %rdx,0x8(%rax)
    4d91:	48 8b 45 f8          	mov    -0x8(%rbp),%rax
    4d95:	48 8b 00             	mov    (%rax),%rax
    4d98:	48 8b 55 f0          	mov    -0x10(%rbp),%rdx
    4d9c:	48 c1 e2 02          	shl    $0x2,%rdx
    4da0:	48 01 c2             	add    %rax,%rdx
    4da3:	48 8b 45 f8          	mov    -0x8(%rbp),%rax
    4da7:	48 89 50 10          	mov    %rdx,0x10(%rax)
    4dab:	90                   	nop
    4dac:	c9                   	leaveq 
    4dad:	c3                   	retq   

0000000000004dae <_ZN9__gnu_cxx17__normal_iteratorIPKiSt6vectorIiSaIiEEEC1ERKS2_>:
    4dae:	55                   	push   %rbp
    4daf:	48 89 e5             	mov    %rsp,%rbp
    4db2:	48 89 7d f8          	mov    %rdi,-0x8(%rbp)
    4db6:	48 89 75 f0          	mov    %rsi,-0x10(%rbp)
    4dba:	48 8b 45 f0          	mov    -0x10(%rbp),%rax
    4dbe:	48 8b 10             	mov    (%rax),%rdx
    4dc1:	48 8b 45 f8          	mov    -0x8(%rbp),%rax
    4dc5:	48 89 10             	mov    %rdx,(%rax)
    4dc8:	90                   	nop
    4dc9:	5d                   	pop    %rbp
    4dca:	c3                   	retq   

0000000000004dcb <_ZSt18uninitialized_copyIN9__gnu_cxx17__normal_iteratorIPKiSt6vectorIiSaIiEEEEPiET0_T_SA_S9_>:
    4dcb:	55                   	push   %rbp
    4dcc:	48 89 e5             	mov    %rsp,%rbp
    4dcf:	48 83 ec 30          	sub    $0x30,%rsp
    4dd3:	48 89 7d e8          	mov    %rdi,-0x18(%rbp)
    4dd7:	48 89 75 e0          	mov    %rsi,-0x20(%rbp)
    4ddb:	48 89 55 d8          	mov    %rdx,-0x28(%rbp)
    4ddf:	c6 45 ff 01          	movb   $0x1,-0x1(%rbp)
    4de3:	48 8b 55 d8          	mov    -0x28(%rbp),%rdx
    4de7:	48 8b 4d e0          	mov    -0x20(%rbp),%rcx
    4deb:	48 8b 45 e8          	mov    -0x18(%rbp),%rax
    4def:	48 89 ce             	mov    %rcx,%rsi
    4df2:	48 89 c7             	mov    %rax,%rdi
    4df5:	e8 8a 04 00 00       	callq  5284 <_ZNSt20__uninitialized_copyILb1EE13__uninit_copyIN9__gnu_cxx17__normal_iteratorIPKiSt6vectorIiSaIiEEEEPiEET0_T_SC_SB_>
    4dfa:	c9                   	leaveq 
    4dfb:	c3                   	retq   

0000000000004dfc <_ZN9__gnu_cxx13new_allocatorISt4pairImjEE10deallocateEPS2_m>:
    4dfc:	55                   	push   %rbp
    4dfd:	48 89 e5             	mov    %rsp,%rbp
    4e00:	48 83 ec 20          	sub    $0x20,%rsp
    4e04:	48 89 7d f8          	mov    %rdi,-0x8(%rbp)
    4e08:	48 89 75 f0          	mov    %rsi,-0x10(%rbp)
    4e0c:	48 89 55 e8          	mov    %rdx,-0x18(%rbp)
    4e10:	48 8b 45 f0          	mov    -0x10(%rbp),%rax
    4e14:	48 89 c7             	mov    %rax,%rdi
    4e17:	e8 e4 d2 ff ff       	callq  2100 <_ZdlPv@plt>
    4e1c:	90                   	nop
    4e1d:	c9                   	leaveq 
    4e1e:	c3                   	retq   

0000000000004e1f <_ZNSt12_Destroy_auxILb1EE9__destroyIPSt4pairImjEEEvT_S5_>:
    4e1f:	55                   	push   %rbp
    4e20:	48 89 e5             	mov    %rsp,%rbp
    4e23:	48 89 7d f8          	mov    %rdi,-0x8(%rbp)
    4e27:	48 89 75 f0          	mov    %rsi,-0x10(%rbp)
    4e2b:	90                   	nop
    4e2c:	5d                   	pop    %rbp
    4e2d:	c3                   	retq   

0000000000004e2e <_ZNKSt6vectorISt4pairImjESaIS1_EE8max_sizeEv>:
    4e2e:	55                   	push   %rbp
    4e2f:	48 89 e5             	mov    %rsp,%rbp
    4e32:	48 83 ec 10          	sub    $0x10,%rsp
    4e36:	48 89 7d f8          	mov    %rdi,-0x8(%rbp)
    4e3a:	48 8b 45 f8          	mov    -0x8(%rbp),%rax
    4e3e:	48 89 c7             	mov    %rax,%rdi
    4e41:	e8 d0 04 00 00       	callq  5316 <_ZNKSt12_Vector_baseISt4pairImjESaIS1_EE19_M_get_Tp_allocatorEv>
    4e46:	48 89 c7             	mov    %rax,%rdi
    4e49:	e8 63 04 00 00       	callq  52b1 <_ZNSt6vectorISt4pairImjESaIS1_EE11_S_max_sizeERKS2_>
    4e4e:	c9                   	leaveq 
    4e4f:	c3                   	retq   

0000000000004e50 <_ZSt3maxImERKT_S2_S2_>:
    4e50:	55                   	push   %rbp
    4e51:	48 89 e5             	mov    %rsp,%rbp
    4e54:	48 89 7d f8          	mov    %rdi,-0x8(%rbp)
    4e58:	48 89 75 f0          	mov    %rsi,-0x10(%rbp)
    4e5c:	48 8b 45 f8          	mov    -0x8(%rbp),%rax
    4e60:	48 8b 10             	mov    (%rax),%rdx
    4e63:	48 8b 45 f0          	mov    -0x10(%rbp),%rax
    4e67:	48 8b 00             	mov    (%rax),%rax
    4e6a:	48 39 c2             	cmp    %rax,%rdx
    4e6d:	73 06                	jae    4e75 <_ZSt3maxImERKT_S2_S2_+0x25>
    4e6f:	48 8b 45 f0          	mov    -0x10(%rbp),%rax
    4e73:	eb 04                	jmp    4e79 <_ZSt3maxImERKT_S2_S2_+0x29>
    4e75:	48 8b 45 f8          	mov    -0x8(%rbp),%rax
    4e79:	5d                   	pop    %rbp
    4e7a:	c3                   	retq   

0000000000004e7b <_ZNSt16allocator_traitsISaISt4pairImjEEE8allocateERS2_m>:
    4e7b:	55                   	push   %rbp
    4e7c:	48 89 e5             	mov    %rsp,%rbp
    4e7f:	48 83 ec 10          	sub    $0x10,%rsp
    4e83:	48 89 7d f8          	mov    %rdi,-0x8(%rbp)
    4e87:	48 89 75 f0          	mov    %rsi,-0x10(%rbp)
    4e8b:	48 8b 4d f0          	mov    -0x10(%rbp),%rcx
    4e8f:	48 8b 45 f8          	mov    -0x8(%rbp),%rax
    4e93:	ba 00 00 00 00       	mov    $0x0,%edx
    4e98:	48 89 ce             	mov    %rcx,%rsi
    4e9b:	48 89 c7             	mov    %rax,%rdi
    4e9e:	e8 81 04 00 00       	callq  5324 <_ZN9__gnu_cxx13new_allocatorISt4pairImjEE8allocateEmPKv>
    4ea3:	c9                   	leaveq 
    4ea4:	c3                   	retq   

0000000000004ea5 <_ZNSt6vectorISt4pairImjESaIS1_EE14_S_do_relocateEPS1_S4_S4_RS2_St17integral_constantIbLb1EE>:
    4ea5:	55                   	push   %rbp
    4ea6:	48 89 e5             	mov    %rsp,%rbp
    4ea9:	48 83 ec 20          	sub    $0x20,%rsp
    4ead:	48 89 7d f8          	mov    %rdi,-0x8(%rbp)
    4eb1:	48 89 75 f0          	mov    %rsi,-0x10(%rbp)
    4eb5:	48 89 55 e8          	mov    %rdx,-0x18(%rbp)
    4eb9:	48 89 4d e0          	mov    %rcx,-0x20(%rbp)
    4ebd:	48 8b 4d e0          	mov    -0x20(%rbp),%rcx
    4ec1:	48 8b 55 e8          	mov    -0x18(%rbp),%rdx
    4ec5:	48 8b 75 f0          	mov    -0x10(%rbp),%rsi
    4ec9:	48 8b 45 f8          	mov    -0x8(%rbp),%rax
    4ecd:	48 89 c7             	mov    %rax,%rdi
    4ed0:	e8 91 04 00 00       	callq  5366 <_ZSt12__relocate_aIPSt4pairImjES2_SaIS1_EET0_T_S5_S4_RT1_>
    4ed5:	c9                   	leaveq 
    4ed6:	c3                   	retq   

0000000000004ed7 <_ZSt32__make_move_if_noexcept_iteratorISt4pairImjESt13move_iteratorIPS1_EET0_PT_>:
    4ed7:	55                   	push   %rbp
    4ed8:	48 89 e5             	mov    %rsp,%rbp
    4edb:	48 83 ec 20          	sub    $0x20,%rsp
    4edf:	48 89 7d e8          	mov    %rdi,-0x18(%rbp)
    4ee3:	64 48 8b 04 25 28 00 	mov    %fs:0x28,%rax
    4eea:	00 00 
    4eec:	48 89 45 f8          	mov    %rax,-0x8(%rbp)
    4ef0:	31 c0                	xor    %eax,%eax
    4ef2:	48 8b 55 e8          	mov    -0x18(%rbp),%rdx
    4ef6:	48 8d 45 f0          	lea    -0x10(%rbp),%rax
    4efa:	48 89 d6             	mov    %rdx,%rsi
    4efd:	48 89 c7             	mov    %rax,%rdi
    4f00:	e8 c5 04 00 00       	callq  53ca <_ZNSt13move_iteratorIPSt4pairImjEEC1ES2_>
    4f05:	48 8b 45 f0          	mov    -0x10(%rbp),%rax
    4f09:	48 8b 4d f8          	mov    -0x8(%rbp),%rcx
    4f0d:	64 48 33 0c 25 28 00 	xor    %fs:0x28,%rcx
    4f14:	00 00 
    4f16:	74 05                	je     4f1d <_ZSt32__make_move_if_noexcept_iteratorISt4pairImjESt13move_iteratorIPS1_EET0_PT_+0x46>
    4f18:	e8 53 d2 ff ff       	callq  2170 <__stack_chk_fail@plt>
    4f1d:	c9                   	leaveq 
    4f1e:	c3                   	retq   

0000000000004f1f <_ZSt22__uninitialized_copy_aISt13move_iteratorIPSt4pairImjEES3_S2_ET0_T_S6_S5_RSaIT1_E>:
    4f1f:	55                   	push   %rbp
    4f20:	48 89 e5             	mov    %rsp,%rbp
    4f23:	48 83 ec 20          	sub    $0x20,%rsp
    4f27:	48 89 7d f8          	mov    %rdi,-0x8(%rbp)
    4f2b:	48 89 75 f0          	mov    %rsi,-0x10(%rbp)
    4f2f:	48 89 55 e8          	mov    %rdx,-0x18(%rbp)
    4f33:	48 89 4d e0          	mov    %rcx,-0x20(%rbp)
    4f37:	48 8b 55 e8          	mov    -0x18(%rbp),%rdx
    4f3b:	48 8b 4d f0          	mov    -0x10(%rbp),%rcx
    4f3f:	48 8b 45 f8          	mov    -0x8(%rbp),%rax
    4f43:	48 89 ce             	mov    %rcx,%rsi
    4f46:	48 89 c7             	mov    %rax,%rdi
    4f49:	e8 96 04 00 00       	callq  53e4 <_ZSt18uninitialized_copyISt13move_iteratorIPSt4pairImjEES3_ET0_T_S6_S5_>
    4f4e:	c9                   	leaveq 
    4f4f:	c3                   	retq   

0000000000004f50 <_ZN9__gnu_cxx13new_allocatorISt4pairImjEE7destroyIS2_EEvPT_>:
    4f50:	55                   	push   %rbp
    4f51:	48 89 e5             	mov    %rsp,%rbp
    4f54:	48 89 7d f8          	mov    %rdi,-0x8(%rbp)
    4f58:	48 89 75 f0          	mov    %rsi,-0x10(%rbp)
    4f5c:	90                   	nop
    4f5d:	5d                   	pop    %rbp
    4f5e:	c3                   	retq   
    4f5f:	90                   	nop

0000000000004f60 <_ZN9__gnu_cxx13new_allocatorIiE10deallocateEPim>:
    4f60:	55                   	push   %rbp
    4f61:	48 89 e5             	mov    %rsp,%rbp
    4f64:	48 83 ec 20          	sub    $0x20,%rsp
    4f68:	48 89 7d f8          	mov    %rdi,-0x8(%rbp)
    4f6c:	48 89 75 f0          	mov    %rsi,-0x10(%rbp)
    4f70:	48 89 55 e8          	mov    %rdx,-0x18(%rbp)
    4f74:	48 8b 45 f0          	mov    -0x10(%rbp),%rax
    4f78:	48 89 c7             	mov    %rax,%rdi
    4f7b:	e8 80 d1 ff ff       	callq  2100 <_ZdlPv@plt>
    4f80:	90                   	nop
    4f81:	c9                   	leaveq 
    4f82:	c3                   	retq   

0000000000004f83 <_ZNSt12_Destroy_auxILb1EE9__destroyIPiEEvT_S3_>:
    4f83:	55                   	push   %rbp
    4f84:	48 89 e5             	mov    %rsp,%rbp
    4f87:	48 89 7d f8          	mov    %rdi,-0x8(%rbp)
    4f8b:	48 89 75 f0          	mov    %rsi,-0x10(%rbp)
    4f8f:	90                   	nop
    4f90:	5d                   	pop    %rbp
    4f91:	c3                   	retq   

0000000000004f92 <_ZNKSt6vectorIiSaIiEE8max_sizeEv>:
    4f92:	55                   	push   %rbp
    4f93:	48 89 e5             	mov    %rsp,%rbp
    4f96:	48 83 ec 10          	sub    $0x10,%rsp
    4f9a:	48 89 7d f8          	mov    %rdi,-0x8(%rbp)
    4f9e:	48 8b 45 f8          	mov    -0x8(%rbp),%rax
    4fa2:	48 89 c7             	mov    %rax,%rdi
    4fa5:	e8 22 f3 ff ff       	callq  42cc <_ZNKSt12_Vector_baseIiSaIiEE19_M_get_Tp_allocatorEv>
    4faa:	48 89 c7             	mov    %rax,%rdi
    4fad:	e8 63 04 00 00       	callq  5415 <_ZNSt6vectorIiSaIiEE11_S_max_sizeERKS0_>
    4fb2:	c9                   	leaveq 
    4fb3:	c3                   	retq   

0000000000004fb4 <_ZNSt16allocator_traitsISaIiEE8allocateERS0_m>:
    4fb4:	55                   	push   %rbp
    4fb5:	48 89 e5             	mov    %rsp,%rbp
    4fb8:	48 83 ec 10          	sub    $0x10,%rsp
    4fbc:	48 89 7d f8          	mov    %rdi,-0x8(%rbp)
    4fc0:	48 89 75 f0          	mov    %rsi,-0x10(%rbp)
    4fc4:	48 8b 4d f0          	mov    -0x10(%rbp),%rcx
    4fc8:	48 8b 45 f8          	mov    -0x8(%rbp),%rax
    4fcc:	ba 00 00 00 00       	mov    $0x0,%edx
    4fd1:	48 89 ce             	mov    %rcx,%rsi
    4fd4:	48 89 c7             	mov    %rax,%rdi
    4fd7:	e8 9e 04 00 00       	callq  547a <_ZN9__gnu_cxx13new_allocatorIiE8allocateEmPKv>
    4fdc:	c9                   	leaveq 
    4fdd:	c3                   	retq   

0000000000004fde <_ZNSt6vectorIiSaIiEE14_S_do_relocateEPiS2_S2_RS0_St17integral_constantIbLb1EE>:
    4fde:	55                   	push   %rbp
    4fdf:	48 89 e5             	mov    %rsp,%rbp
    4fe2:	48 83 ec 20          	sub    $0x20,%rsp
    4fe6:	48 89 7d f8          	mov    %rdi,-0x8(%rbp)
    4fea:	48 89 75 f0          	mov    %rsi,-0x10(%rbp)
    4fee:	48 89 55 e8          	mov    %rdx,-0x18(%rbp)
    4ff2:	48 89 4d e0          	mov    %rcx,-0x20(%rbp)
    4ff6:	48 8b 4d e0          	mov    -0x20(%rbp),%rcx
    4ffa:	48 8b 55 e8          	mov    -0x18(%rbp),%rdx
    4ffe:	48 8b 75 f0          	mov    -0x10(%rbp),%rsi
    5002:	48 8b 45 f8          	mov    -0x8(%rbp),%rax
    5006:	48 89 c7             	mov    %rax,%rdi
    5009:	e8 ae 04 00 00       	callq  54bc <_ZSt12__relocate_aIPiS0_SaIiEET0_T_S3_S2_RT1_>
    500e:	c9                   	leaveq 
    500f:	c3                   	retq   

0000000000005010 <_ZSt32__make_move_if_noexcept_iteratorIiSt13move_iteratorIPiEET0_PT_>:
    5010:	55                   	push   %rbp
    5011:	48 89 e5             	mov    %rsp,%rbp
    5014:	48 83 ec 20          	sub    $0x20,%rsp
    5018:	48 89 7d e8          	mov    %rdi,-0x18(%rbp)
    501c:	64 48 8b 04 25 28 00 	mov    %fs:0x28,%rax
    5023:	00 00 
    5025:	48 89 45 f8          	mov    %rax,-0x8(%rbp)
    5029:	31 c0                	xor    %eax,%eax
    502b:	48 8b 55 e8          	mov    -0x18(%rbp),%rdx
    502f:	48 8d 45 f0          	lea    -0x10(%rbp),%rax
    5033:	48 89 d6             	mov    %rdx,%rsi
    5036:	48 89 c7             	mov    %rax,%rdi
    5039:	e8 e2 04 00 00       	callq  5520 <_ZNSt13move_iteratorIPiEC1ES0_>
    503e:	48 8b 45 f0          	mov    -0x10(%rbp),%rax
    5042:	48 8b 4d f8          	mov    -0x8(%rbp),%rcx
    5046:	64 48 33 0c 25 28 00 	xor    %fs:0x28,%rcx
    504d:	00 00 
    504f:	74 05                	je     5056 <_ZSt32__make_move_if_noexcept_iteratorIiSt13move_iteratorIPiEET0_PT_+0x46>
    5051:	e8 1a d1 ff ff       	callq  2170 <__stack_chk_fail@plt>
    5056:	c9                   	leaveq 
    5057:	c3                   	retq   

0000000000005058 <_ZSt22__uninitialized_copy_aISt13move_iteratorIPiES1_iET0_T_S4_S3_RSaIT1_E>:
    5058:	55                   	push   %rbp
    5059:	48 89 e5             	mov    %rsp,%rbp
    505c:	48 83 ec 20          	sub    $0x20,%rsp
    5060:	48 89 7d f8          	mov    %rdi,-0x8(%rbp)
    5064:	48 89 75 f0          	mov    %rsi,-0x10(%rbp)
    5068:	48 89 55 e8          	mov    %rdx,-0x18(%rbp)
    506c:	48 89 4d e0          	mov    %rcx,-0x20(%rbp)
    5070:	48 8b 55 e8          	mov    -0x18(%rbp),%rdx
    5074:	48 8b 4d f0          	mov    -0x10(%rbp),%rcx
    5078:	48 8b 45 f8          	mov    -0x8(%rbp),%rax
    507c:	48 89 ce             	mov    %rcx,%rsi
    507f:	48 89 c7             	mov    %rax,%rdi
    5082:	e8 b3 04 00 00       	callq  553a <_ZSt18uninitialized_copyISt13move_iteratorIPiES1_ET0_T_S4_S3_>
    5087:	c9                   	leaveq 
    5088:	c3                   	retq   
    5089:	90                   	nop

000000000000508a <_ZN9__gnu_cxx13new_allocatorIiE7destroyIiEEvPT_>:
    508a:	55                   	push   %rbp
    508b:	48 89 e5             	mov    %rsp,%rbp
    508e:	48 89 7d f8          	mov    %rdi,-0x8(%rbp)
    5092:	48 89 75 f0          	mov    %rsi,-0x10(%rbp)
    5096:	90                   	nop
    5097:	5d                   	pop    %rbp
    5098:	c3                   	retq   

0000000000005099 <_ZNSt6vectorIiSaIiEE17_S_check_init_lenEmRKS0_>:
    5099:	55                   	push   %rbp
    509a:	48 89 e5             	mov    %rsp,%rbp
    509d:	53                   	push   %rbx
    509e:	48 83 ec 28          	sub    $0x28,%rsp
    50a2:	48 89 7d d8          	mov    %rdi,-0x28(%rbp)
    50a6:	48 89 75 d0          	mov    %rsi,-0x30(%rbp)
    50aa:	64 48 8b 04 25 28 00 	mov    %fs:0x28,%rax
    50b1:	00 00 
    50b3:	48 89 45 e8          	mov    %rax,-0x18(%rbp)
    50b7:	31 c0                	xor    %eax,%eax
    50b9:	48 8b 55 d0          	mov    -0x30(%rbp),%rdx
    50bd:	48 8d 45 e7          	lea    -0x19(%rbp),%rax
    50c1:	48 89 d6             	mov    %rdx,%rsi
    50c4:	48 89 c7             	mov    %rax,%rdi
    50c7:	e8 0e f0 ff ff       	callq  40da <_ZNSaIiEC1ERKS_>
    50cc:	48 8d 45 e7          	lea    -0x19(%rbp),%rax
    50d0:	48 89 c7             	mov    %rax,%rdi
    50d3:	e8 3d 03 00 00       	callq  5415 <_ZNSt6vectorIiSaIiEE11_S_max_sizeERKS0_>
    50d8:	48 39 45 d8          	cmp    %rax,-0x28(%rbp)
    50dc:	0f 97 c3             	seta   %bl
    50df:	48 8d 45 e7          	lea    -0x19(%rbp),%rax
    50e3:	48 89 c7             	mov    %rax,%rdi
    50e6:	e8 17 e4 ff ff       	callq  3502 <_ZNSaIiED1Ev>
    50eb:	84 db                	test   %bl,%bl
    50ed:	74 0c                	je     50fb <_ZNSt6vectorIiSaIiEE17_S_check_init_lenEmRKS0_+0x62>
    50ef:	48 8d 3d 52 10 00 00 	lea    0x1052(%rip),%rdi        # 6148 <_ZStL19piecewise_construct+0x140>
    50f6:	e8 95 cf ff ff       	callq  2090 <_ZSt20__throw_length_errorPKc@plt>
    50fb:	48 8b 45 d8          	mov    -0x28(%rbp),%rax
    50ff:	48 8b 4d e8          	mov    -0x18(%rbp),%rcx
    5103:	64 48 33 0c 25 28 00 	xor    %fs:0x28,%rcx
    510a:	00 00 
    510c:	74 05                	je     5113 <_ZNSt6vectorIiSaIiEE17_S_check_init_lenEmRKS0_+0x7a>
    510e:	e8 5d d0 ff ff       	callq  2170 <__stack_chk_fail@plt>
    5113:	48 83 c4 28          	add    $0x28,%rsp
    5117:	5b                   	pop    %rbx
    5118:	5d                   	pop    %rbp
    5119:	c3                   	retq   

000000000000511a <_ZNSt6vectorIiSaIiEE18_M_fill_initializeEmRKi>:
    511a:	55                   	push   %rbp
    511b:	48 89 e5             	mov    %rsp,%rbp
    511e:	48 83 ec 20          	sub    $0x20,%rsp
    5122:	48 89 7d f8          	mov    %rdi,-0x8(%rbp)
    5126:	48 89 75 f0          	mov    %rsi,-0x10(%rbp)
    512a:	48 89 55 e8          	mov    %rdx,-0x18(%rbp)
    512e:	48 8b 45 f8          	mov    -0x8(%rbp),%rax
    5132:	48 89 c7             	mov    %rax,%rdi
    5135:	e8 aa eb ff ff       	callq  3ce4 <_ZNSt12_Vector_baseIiSaIiEE19_M_get_Tp_allocatorEv>
    513a:	48 89 c1             	mov    %rax,%rcx
    513d:	48 8b 45 f8          	mov    -0x8(%rbp),%rax
    5141:	48 8b 00             	mov    (%rax),%rax
    5144:	48 8b 55 e8          	mov    -0x18(%rbp),%rdx
    5148:	48 8b 75 f0          	mov    -0x10(%rbp),%rsi
    514c:	48 89 c7             	mov    %rax,%rdi
    514f:	e8 cc fa ff ff       	callq  4c20 <_ZSt24__uninitialized_fill_n_aIPimiiET_S1_T0_RKT1_RSaIT2_E>
    5154:	48 8b 55 f8          	mov    -0x8(%rbp),%rdx
    5158:	48 89 42 08          	mov    %rax,0x8(%rdx)
    515c:	90                   	nop
    515d:	c9                   	leaveq 
    515e:	c3                   	retq   
    515f:	90                   	nop

0000000000005160 <_ZNSt12_Vector_baseIiSaIiEE17_Vector_impl_data12_M_copy_dataERKS2_>:
    5160:	55                   	push   %rbp
    5161:	48 89 e5             	mov    %rsp,%rbp
    5164:	48 89 7d f8          	mov    %rdi,-0x8(%rbp)
    5168:	48 89 75 f0          	mov    %rsi,-0x10(%rbp)
    516c:	48 8b 45 f0          	mov    -0x10(%rbp),%rax
    5170:	48 8b 10             	mov    (%rax),%rdx
    5173:	48 8b 45 f8          	mov    -0x8(%rbp),%rax
    5177:	48 89 10             	mov    %rdx,(%rax)
    517a:	48 8b 45 f0          	mov    -0x10(%rbp),%rax
    517e:	48 8b 50 08          	mov    0x8(%rax),%rdx
    5182:	48 8b 45 f8          	mov    -0x8(%rbp),%rax
    5186:	48 89 50 08          	mov    %rdx,0x8(%rax)
    518a:	48 8b 45 f0          	mov    -0x10(%rbp),%rax
    518e:	48 8b 50 10          	mov    0x10(%rax),%rdx
    5192:	48 8b 45 f8          	mov    -0x8(%rbp),%rax
    5196:	48 89 50 10          	mov    %rdx,0x10(%rax)
    519a:	90                   	nop
    519b:	5d                   	pop    %rbp
    519c:	c3                   	retq   

000000000000519d <_ZSt12__niter_baseIPiSt6vectorIiSaIiEEET_N9__gnu_cxx17__normal_iteratorIS4_T0_EE>:
    519d:	55                   	push   %rbp
    519e:	48 89 e5             	mov    %rsp,%rbp
    51a1:	48 83 ec 10          	sub    $0x10,%rsp
    51a5:	48 89 7d f8          	mov    %rdi,-0x8(%rbp)
    51a9:	48 8d 45 f8          	lea    -0x8(%rbp),%rax
    51ad:	48 89 c7             	mov    %rax,%rdi
    51b0:	e8 67 f8 ff ff       	callq  4a1c <_ZNK9__gnu_cxx17__normal_iteratorIPiSt6vectorIiSaIiEEE4baseEv>
    51b5:	48 8b 00             	mov    (%rax),%rax
    51b8:	c9                   	leaveq 
    51b9:	c3                   	retq   

00000000000051ba <_ZSt8__fill_aIPiiEN9__gnu_cxx11__enable_ifIXsrSt11__is_scalarIT0_E7__valueEvE6__typeET_S8_RKS4_>:
    51ba:	55                   	push   %rbp
    51bb:	48 89 e5             	mov    %rsp,%rbp
    51be:	48 89 7d e8          	mov    %rdi,-0x18(%rbp)
    51c2:	48 89 75 e0          	mov    %rsi,-0x20(%rbp)
    51c6:	48 89 55 d8          	mov    %rdx,-0x28(%rbp)
    51ca:	48 8b 45 d8          	mov    -0x28(%rbp),%rax
    51ce:	8b 00                	mov    (%rax),%eax
    51d0:	89 45 fc             	mov    %eax,-0x4(%rbp)
    51d3:	48 8b 45 e8          	mov    -0x18(%rbp),%rax
    51d7:	48 3b 45 e0          	cmp    -0x20(%rbp),%rax
    51db:	74 10                	je     51ed <_ZSt8__fill_aIPiiEN9__gnu_cxx11__enable_ifIXsrSt11__is_scalarIT0_E7__valueEvE6__typeET_S8_RKS4_+0x33>
    51dd:	48 8b 45 e8          	mov    -0x18(%rbp),%rax
    51e1:	8b 55 fc             	mov    -0x4(%rbp),%edx
    51e4:	89 10                	mov    %edx,(%rax)
    51e6:	48 83 45 e8 04       	addq   $0x4,-0x18(%rbp)
    51eb:	eb e6                	jmp    51d3 <_ZSt8__fill_aIPiiEN9__gnu_cxx11__enable_ifIXsrSt11__is_scalarIT0_E7__valueEvE6__typeET_S8_RKS4_+0x19>
    51ed:	90                   	nop
    51ee:	5d                   	pop    %rbp
    51ef:	c3                   	retq   

00000000000051f0 <_ZSt20uninitialized_fill_nIPimiET_S1_T0_RKT1_>:
    51f0:	55                   	push   %rbp
    51f1:	48 89 e5             	mov    %rsp,%rbp
    51f4:	48 83 ec 30          	sub    $0x30,%rsp
    51f8:	48 89 7d e8          	mov    %rdi,-0x18(%rbp)
    51fc:	48 89 75 e0          	mov    %rsi,-0x20(%rbp)
    5200:	48 89 55 d8          	mov    %rdx,-0x28(%rbp)
    5204:	c6 45 ff 01          	movb   $0x1,-0x1(%rbp)
    5208:	48 8b 55 d8          	mov    -0x28(%rbp),%rdx
    520c:	48 8b 4d e0          	mov    -0x20(%rbp),%rcx
    5210:	48 8b 45 e8          	mov    -0x18(%rbp),%rax
    5214:	48 89 ce             	mov    %rcx,%rsi
    5217:	48 89 c7             	mov    %rax,%rdi
    521a:	e8 4c 03 00 00       	callq  556b <_ZNSt22__uninitialized_fill_nILb1EE15__uninit_fill_nIPimiEET_S3_T0_RKT1_>
    521f:	c9                   	leaveq 
    5220:	c3                   	retq   

0000000000005221 <_ZSt12__niter_baseIPiET_S1_>:
    5221:	55                   	push   %rbp
    5222:	48 89 e5             	mov    %rsp,%rbp
    5225:	48 89 7d f8          	mov    %rdi,-0x8(%rbp)
    5229:	48 8b 45 f8          	mov    -0x8(%rbp),%rax
    522d:	5d                   	pop    %rbp
    522e:	c3                   	retq   

000000000000522f <_ZSt10__fill_n_aIPimiEN9__gnu_cxx11__enable_ifIXsrSt11__is_scalarIT1_E7__valueET_E6__typeES6_T0_RKS4_>:
    522f:	55                   	push   %rbp
    5230:	48 89 e5             	mov    %rsp,%rbp
    5233:	48 89 7d e8          	mov    %rdi,-0x18(%rbp)
    5237:	48 89 75 e0          	mov    %rsi,-0x20(%rbp)
    523b:	48 89 55 d8          	mov    %rdx,-0x28(%rbp)
    523f:	48 8b 45 d8          	mov    -0x28(%rbp),%rax
    5243:	8b 00                	mov    (%rax),%eax
    5245:	89 45 f4             	mov    %eax,-0xc(%rbp)
    5248:	48 8b 45 e0          	mov    -0x20(%rbp),%rax
    524c:	48 89 45 f8          	mov    %rax,-0x8(%rbp)
    5250:	48 83 7d f8 00       	cmpq   $0x0,-0x8(%rbp)
    5255:	74 15                	je     526c <_ZSt10__fill_n_aIPimiEN9__gnu_cxx11__enable_ifIXsrSt11__is_scalarIT1_E7__valueET_E6__typeES6_T0_RKS4_+0x3d>
    5257:	48 8b 45 e8          	mov    -0x18(%rbp),%rax
    525b:	8b 55 f4             	mov    -0xc(%rbp),%edx
    525e:	89 10                	mov    %edx,(%rax)
    5260:	48 83 6d f8 01       	subq   $0x1,-0x8(%rbp)
    5265:	48 83 45 e8 04       	addq   $0x4,-0x18(%rbp)
    526a:	eb e4                	jmp    5250 <_ZSt10__fill_n_aIPimiEN9__gnu_cxx11__enable_ifIXsrSt11__is_scalarIT1_E7__valueET_E6__typeES6_T0_RKS4_+0x21>
    526c:	48 8b 45 e8          	mov    -0x18(%rbp),%rax
    5270:	5d                   	pop    %rbp
    5271:	c3                   	retq   

0000000000005272 <_ZSt12__niter_wrapIPiET_RKS1_S1_>:
    5272:	55                   	push   %rbp
    5273:	48 89 e5             	mov    %rsp,%rbp
    5276:	48 89 7d f8          	mov    %rdi,-0x8(%rbp)
    527a:	48 89 75 f0          	mov    %rsi,-0x10(%rbp)
    527e:	48 8b 45 f0          	mov    -0x10(%rbp),%rax
    5282:	5d                   	pop    %rbp
    5283:	c3                   	retq   

0000000000005284 <_ZNSt20__uninitialized_copyILb1EE13__uninit_copyIN9__gnu_cxx17__normal_iteratorIPKiSt6vectorIiSaIiEEEEPiEET0_T_SC_SB_>:
    5284:	55                   	push   %rbp
    5285:	48 89 e5             	mov    %rsp,%rbp
    5288:	48 83 ec 20          	sub    $0x20,%rsp
    528c:	48 89 7d f8          	mov    %rdi,-0x8(%rbp)
    5290:	48 89 75 f0          	mov    %rsi,-0x10(%rbp)
    5294:	48 89 55 e8          	mov    %rdx,-0x18(%rbp)
    5298:	48 8b 55 e8          	mov    -0x18(%rbp),%rdx
    529c:	48 8b 4d f0          	mov    -0x10(%rbp),%rcx
    52a0:	48 8b 45 f8          	mov    -0x8(%rbp),%rax
    52a4:	48 89 ce             	mov    %rcx,%rsi
    52a7:	48 89 c7             	mov    %rax,%rdi
    52aa:	e8 e9 02 00 00       	callq  5598 <_ZSt4copyIN9__gnu_cxx17__normal_iteratorIPKiSt6vectorIiSaIiEEEEPiET0_T_SA_S9_>
    52af:	c9                   	leaveq 
    52b0:	c3                   	retq   

00000000000052b1 <_ZNSt6vectorISt4pairImjESaIS1_EE11_S_max_sizeERKS2_>:
    52b1:	55                   	push   %rbp
    52b2:	48 89 e5             	mov    %rsp,%rbp
    52b5:	48 83 ec 30          	sub    $0x30,%rsp
    52b9:	48 89 7d d8          	mov    %rdi,-0x28(%rbp)
    52bd:	64 48 8b 04 25 28 00 	mov    %fs:0x28,%rax
    52c4:	00 00 
    52c6:	48 89 45 f8          	mov    %rax,-0x8(%rbp)
    52ca:	31 c0                	xor    %eax,%eax
    52cc:	48 b8 ff ff ff ff ff 	movabs $0x7ffffffffffffff,%rax
    52d3:	ff ff 07 
    52d6:	48 89 45 e8          	mov    %rax,-0x18(%rbp)
    52da:	48 8b 45 d8          	mov    -0x28(%rbp),%rax
    52de:	48 89 c7             	mov    %rax,%rdi
    52e1:	e8 fe 02 00 00       	callq  55e4 <_ZNSt16allocator_traitsISaISt4pairImjEEE8max_sizeERKS2_>
    52e6:	48 89 45 f0          	mov    %rax,-0x10(%rbp)
    52ea:	48 8d 55 f0          	lea    -0x10(%rbp),%rdx
    52ee:	48 8d 45 e8          	lea    -0x18(%rbp),%rax
    52f2:	48 89 d6             	mov    %rdx,%rsi
    52f5:	48 89 c7             	mov    %rax,%rdi
    52f8:	e8 01 03 00 00       	callq  55fe <_ZSt3minImERKT_S2_S2_>
    52fd:	48 8b 00             	mov    (%rax),%rax
    5300:	48 8b 4d f8          	mov    -0x8(%rbp),%rcx
    5304:	64 48 33 0c 25 28 00 	xor    %fs:0x28,%rcx
    530b:	00 00 
    530d:	74 05                	je     5314 <_ZNSt6vectorISt4pairImjESaIS1_EE11_S_max_sizeERKS2_+0x63>
    530f:	e8 5c ce ff ff       	callq  2170 <__stack_chk_fail@plt>
    5314:	c9                   	leaveq 
    5315:	c3                   	retq   

0000000000005316 <_ZNKSt12_Vector_baseISt4pairImjESaIS1_EE19_M_get_Tp_allocatorEv>:
    5316:	55                   	push   %rbp
    5317:	48 89 e5             	mov    %rsp,%rbp
    531a:	48 89 7d f8          	mov    %rdi,-0x8(%rbp)
    531e:	48 8b 45 f8          	mov    -0x8(%rbp),%rax
    5322:	5d                   	pop    %rbp
    5323:	c3                   	retq   

0000000000005324 <_ZN9__gnu_cxx13new_allocatorISt4pairImjEE8allocateEmPKv>:
    5324:	55                   	push   %rbp
    5325:	48 89 e5             	mov    %rsp,%rbp
    5328:	48 83 ec 20          	sub    $0x20,%rsp
    532c:	48 89 7d f8          	mov    %rdi,-0x8(%rbp)
    5330:	48 89 75 f0          	mov    %rsi,-0x10(%rbp)
    5334:	48 89 55 e8          	mov    %rdx,-0x18(%rbp)
    5338:	48 8b 45 f8          	mov    -0x8(%rbp),%rax
    533c:	48 89 c7             	mov    %rax,%rdi
    533f:	e8 e6 02 00 00       	callq  562a <_ZNK9__gnu_cxx13new_allocatorISt4pairImjEE8max_sizeEv>
    5344:	48 39 45 f0          	cmp    %rax,-0x10(%rbp)
    5348:	0f 97 c0             	seta   %al
    534b:	84 c0                	test   %al,%al
    534d:	74 05                	je     5354 <_ZN9__gnu_cxx13new_allocatorISt4pairImjEE8allocateEmPKv+0x30>
    534f:	e8 ec cc ff ff       	callq  2040 <_ZSt17__throw_bad_allocv@plt>
    5354:	48 8b 45 f0          	mov    -0x10(%rbp),%rax
    5358:	48 c1 e0 04          	shl    $0x4,%rax
    535c:	48 89 c7             	mov    %rax,%rdi
    535f:	e8 cc cd ff ff       	callq  2130 <_Znwm@plt>
    5364:	c9                   	leaveq 
    5365:	c3                   	retq   

0000000000005366 <_ZSt12__relocate_aIPSt4pairImjES2_SaIS1_EET0_T_S5_S4_RT1_>:
    5366:	55                   	push   %rbp
    5367:	48 89 e5             	mov    %rsp,%rbp
    536a:	41 54                	push   %r12
    536c:	53                   	push   %rbx
    536d:	48 83 ec 20          	sub    $0x20,%rsp
    5371:	48 89 7d e8          	mov    %rdi,-0x18(%rbp)
    5375:	48 89 75 e0          	mov    %rsi,-0x20(%rbp)
    5379:	48 89 55 d8          	mov    %rdx,-0x28(%rbp)
    537d:	48 89 4d d0          	mov    %rcx,-0x30(%rbp)
    5381:	48 8b 45 d8          	mov    -0x28(%rbp),%rax
    5385:	48 89 c7             	mov    %rax,%rdi
    5388:	e8 b1 02 00 00       	callq  563e <_ZSt12__niter_baseIPSt4pairImjEET_S3_>
    538d:	49 89 c4             	mov    %rax,%r12
    5390:	48 8b 45 e0          	mov    -0x20(%rbp),%rax
    5394:	48 89 c7             	mov    %rax,%rdi
    5397:	e8 a2 02 00 00       	callq  563e <_ZSt12__niter_baseIPSt4pairImjEET_S3_>
    539c:	48 89 c3             	mov    %rax,%rbx
    539f:	48 8b 45 e8          	mov    -0x18(%rbp),%rax
    53a3:	48 89 c7             	mov    %rax,%rdi
    53a6:	e8 93 02 00 00       	callq  563e <_ZSt12__niter_baseIPSt4pairImjEET_S3_>
    53ab:	48 89 c7             	mov    %rax,%rdi
    53ae:	48 8b 45 d0          	mov    -0x30(%rbp),%rax
    53b2:	48 89 c1             	mov    %rax,%rcx
    53b5:	4c 89 e2             	mov    %r12,%rdx
    53b8:	48 89 de             	mov    %rbx,%rsi
    53bb:	e8 8c 02 00 00       	callq  564c <_ZSt14__relocate_a_1IPSt4pairImjES2_SaIS1_EET0_T_S5_S4_RT1_>
    53c0:	48 83 c4 20          	add    $0x20,%rsp
    53c4:	5b                   	pop    %rbx
    53c5:	41 5c                	pop    %r12
    53c7:	5d                   	pop    %rbp
    53c8:	c3                   	retq   
    53c9:	90                   	nop

00000000000053ca <_ZNSt13move_iteratorIPSt4pairImjEEC1ES2_>:
    53ca:	55                   	push   %rbp
    53cb:	48 89 e5             	mov    %rsp,%rbp
    53ce:	48 89 7d f8          	mov    %rdi,-0x8(%rbp)
    53d2:	48 89 75 f0          	mov    %rsi,-0x10(%rbp)
    53d6:	48 8b 45 f8          	mov    -0x8(%rbp),%rax
    53da:	48 8b 55 f0          	mov    -0x10(%rbp),%rdx
    53de:	48 89 10             	mov    %rdx,(%rax)
    53e1:	90                   	nop
    53e2:	5d                   	pop    %rbp
    53e3:	c3                   	retq   

00000000000053e4 <_ZSt18uninitialized_copyISt13move_iteratorIPSt4pairImjEES3_ET0_T_S6_S5_>:
    53e4:	55                   	push   %rbp
    53e5:	48 89 e5             	mov    %rsp,%rbp
    53e8:	48 83 ec 30          	sub    $0x30,%rsp
    53ec:	48 89 7d e8          	mov    %rdi,-0x18(%rbp)
    53f0:	48 89 75 e0          	mov    %rsi,-0x20(%rbp)
    53f4:	48 89 55 d8          	mov    %rdx,-0x28(%rbp)
    53f8:	c6 45 ff 01          	movb   $0x1,-0x1(%rbp)
    53fc:	48 8b 55 d8          	mov    -0x28(%rbp),%rdx
    5400:	48 8b 4d e0          	mov    -0x20(%rbp),%rcx
    5404:	48 8b 45 e8          	mov    -0x18(%rbp),%rax
    5408:	48 89 ce             	mov    %rcx,%rsi
    540b:	48 89 c7             	mov    %rax,%rdi
    540e:	e8 ab 02 00 00       	callq  56be <_ZNSt20__uninitialized_copyILb0EE13__uninit_copyISt13move_iteratorIPSt4pairImjEES5_EET0_T_S8_S7_>
    5413:	c9                   	leaveq 
    5414:	c3                   	retq   

0000000000005415 <_ZNSt6vectorIiSaIiEE11_S_max_sizeERKS0_>:
    5415:	55                   	push   %rbp
    5416:	48 89 e5             	mov    %rsp,%rbp
    5419:	48 83 ec 30          	sub    $0x30,%rsp
    541d:	48 89 7d d8          	mov    %rdi,-0x28(%rbp)
    5421:	64 48 8b 04 25 28 00 	mov    %fs:0x28,%rax
    5428:	00 00 
    542a:	48 89 45 f8          	mov    %rax,-0x8(%rbp)
    542e:	31 c0                	xor    %eax,%eax
    5430:	48 b8 ff ff ff ff ff 	movabs $0x1fffffffffffffff,%rax
    5437:	ff ff 1f 
    543a:	48 89 45 e8          	mov    %rax,-0x18(%rbp)
    543e:	48 8b 45 d8          	mov    -0x28(%rbp),%rax
    5442:	48 89 c7             	mov    %rax,%rdi
    5445:	e8 21 03 00 00       	callq  576b <_ZNSt16allocator_traitsISaIiEE8max_sizeERKS0_>
    544a:	48 89 45 f0          	mov    %rax,-0x10(%rbp)
    544e:	48 8d 55 f0          	lea    -0x10(%rbp),%rdx
    5452:	48 8d 45 e8          	lea    -0x18(%rbp),%rax
    5456:	48 89 d6             	mov    %rdx,%rsi
    5459:	48 89 c7             	mov    %rax,%rdi
    545c:	e8 9d 01 00 00       	callq  55fe <_ZSt3minImERKT_S2_S2_>
    5461:	48 8b 00             	mov    (%rax),%rax
    5464:	48 8b 4d f8          	mov    -0x8(%rbp),%rcx
    5468:	64 48 33 0c 25 28 00 	xor    %fs:0x28,%rcx
    546f:	00 00 
    5471:	74 05                	je     5478 <_ZNSt6vectorIiSaIiEE11_S_max_sizeERKS0_+0x63>
    5473:	e8 f8 cc ff ff       	callq  2170 <__stack_chk_fail@plt>
    5478:	c9                   	leaveq 
    5479:	c3                   	retq   

000000000000547a <_ZN9__gnu_cxx13new_allocatorIiE8allocateEmPKv>:
    547a:	55                   	push   %rbp
    547b:	48 89 e5             	mov    %rsp,%rbp
    547e:	48 83 ec 20          	sub    $0x20,%rsp
    5482:	48 89 7d f8          	mov    %rdi,-0x8(%rbp)
    5486:	48 89 75 f0          	mov    %rsi,-0x10(%rbp)
    548a:	48 89 55 e8          	mov    %rdx,-0x18(%rbp)
    548e:	48 8b 45 f8          	mov    -0x8(%rbp),%rax
    5492:	48 89 c7             	mov    %rax,%rdi
    5495:	e8 ec 02 00 00       	callq  5786 <_ZNK9__gnu_cxx13new_allocatorIiE8max_sizeEv>
    549a:	48 39 45 f0          	cmp    %rax,-0x10(%rbp)
    549e:	0f 97 c0             	seta   %al
    54a1:	84 c0                	test   %al,%al
    54a3:	74 05                	je     54aa <_ZN9__gnu_cxx13new_allocatorIiE8allocateEmPKv+0x30>
    54a5:	e8 96 cb ff ff       	callq  2040 <_ZSt17__throw_bad_allocv@plt>
    54aa:	48 8b 45 f0          	mov    -0x10(%rbp),%rax
    54ae:	48 c1 e0 02          	shl    $0x2,%rax
    54b2:	48 89 c7             	mov    %rax,%rdi
    54b5:	e8 76 cc ff ff       	callq  2130 <_Znwm@plt>
    54ba:	c9                   	leaveq 
    54bb:	c3                   	retq   

00000000000054bc <_ZSt12__relocate_aIPiS0_SaIiEET0_T_S3_S2_RT1_>:
    54bc:	55                   	push   %rbp
    54bd:	48 89 e5             	mov    %rsp,%rbp
    54c0:	41 54                	push   %r12
    54c2:	53                   	push   %rbx
    54c3:	48 83 ec 20          	sub    $0x20,%rsp
    54c7:	48 89 7d e8          	mov    %rdi,-0x18(%rbp)
    54cb:	48 89 75 e0          	mov    %rsi,-0x20(%rbp)
    54cf:	48 89 55 d8          	mov    %rdx,-0x28(%rbp)
    54d3:	48 89 4d d0          	mov    %rcx,-0x30(%rbp)
    54d7:	48 8b 45 d8          	mov    -0x28(%rbp),%rax
    54db:	48 89 c7             	mov    %rax,%rdi
    54de:	e8 3e fd ff ff       	callq  5221 <_ZSt12__niter_baseIPiET_S1_>
    54e3:	49 89 c4             	mov    %rax,%r12
    54e6:	48 8b 45 e0          	mov    -0x20(%rbp),%rax
    54ea:	48 89 c7             	mov    %rax,%rdi
    54ed:	e8 2f fd ff ff       	callq  5221 <_ZSt12__niter_baseIPiET_S1_>
    54f2:	48 89 c3             	mov    %rax,%rbx
    54f5:	48 8b 45 e8          	mov    -0x18(%rbp),%rax
    54f9:	48 89 c7             	mov    %rax,%rdi
    54fc:	e8 20 fd ff ff       	callq  5221 <_ZSt12__niter_baseIPiET_S1_>
    5501:	48 89 c7             	mov    %rax,%rdi
    5504:	48 8b 45 d0          	mov    -0x30(%rbp),%rax
    5508:	48 89 c1             	mov    %rax,%rcx
    550b:	4c 89 e2             	mov    %r12,%rdx
    550e:	48 89 de             	mov    %rbx,%rsi
    5511:	e8 84 02 00 00       	callq  579a <_ZSt14__relocate_a_1IiiENSt9enable_ifIXsrSt24__is_bitwise_relocatableIT_vE5valueEPS2_E4typeES4_S4_S4_RSaIT0_E>
    5516:	48 83 c4 20          	add    $0x20,%rsp
    551a:	5b                   	pop    %rbx
    551b:	41 5c                	pop    %r12
    551d:	5d                   	pop    %rbp
    551e:	c3                   	retq   
    551f:	90                   	nop

0000000000005520 <_ZNSt13move_iteratorIPiEC1ES0_>:
    5520:	55                   	push   %rbp
    5521:	48 89 e5             	mov    %rsp,%rbp
    5524:	48 89 7d f8          	mov    %rdi,-0x8(%rbp)
    5528:	48 89 75 f0          	mov    %rsi,-0x10(%rbp)
    552c:	48 8b 45 f8          	mov    -0x8(%rbp),%rax
    5530:	48 8b 55 f0          	mov    -0x10(%rbp),%rdx
    5534:	48 89 10             	mov    %rdx,(%rax)
    5537:	90                   	nop
    5538:	5d                   	pop    %rbp
    5539:	c3                   	retq   

000000000000553a <_ZSt18uninitialized_copyISt13move_iteratorIPiES1_ET0_T_S4_S3_>:
    553a:	55                   	push   %rbp
    553b:	48 89 e5             	mov    %rsp,%rbp
    553e:	48 83 ec 30          	sub    $0x30,%rsp
    5542:	48 89 7d e8          	mov    %rdi,-0x18(%rbp)
    5546:	48 89 75 e0          	mov    %rsi,-0x20(%rbp)
    554a:	48 89 55 d8          	mov    %rdx,-0x28(%rbp)
    554e:	c6 45 ff 01          	movb   $0x1,-0x1(%rbp)
    5552:	48 8b 55 d8          	mov    -0x28(%rbp),%rdx
    5556:	48 8b 4d e0          	mov    -0x20(%rbp),%rcx
    555a:	48 8b 45 e8          	mov    -0x18(%rbp),%rax
    555e:	48 89 ce             	mov    %rcx,%rsi
    5561:	48 89 c7             	mov    %rax,%rdi
    5564:	e8 94 02 00 00       	callq  57fd <_ZNSt20__uninitialized_copyILb1EE13__uninit_copyISt13move_iteratorIPiES3_EET0_T_S6_S5_>
    5569:	c9                   	leaveq 
    556a:	c3                   	retq   

000000000000556b <_ZNSt22__uninitialized_fill_nILb1EE15__uninit_fill_nIPimiEET_S3_T0_RKT1_>:
    556b:	55                   	push   %rbp
    556c:	48 89 e5             	mov    %rsp,%rbp
    556f:	48 83 ec 20          	sub    $0x20,%rsp
    5573:	48 89 7d f8          	mov    %rdi,-0x8(%rbp)
    5577:	48 89 75 f0          	mov    %rsi,-0x10(%rbp)
    557b:	48 89 55 e8          	mov    %rdx,-0x18(%rbp)
    557f:	48 8b 55 e8          	mov    -0x18(%rbp),%rdx
    5583:	48 8b 4d f0          	mov    -0x10(%rbp),%rcx
    5587:	48 8b 45 f8          	mov    -0x8(%rbp),%rax
    558b:	48 89 ce             	mov    %rcx,%rsi
    558e:	48 89 c7             	mov    %rax,%rdi
    5591:	e8 1c f7 ff ff       	callq  4cb2 <_ZSt6fill_nIPimiET_S1_T0_RKT1_>
    5596:	c9                   	leaveq 
    5597:	c3                   	retq   

0000000000005598 <_ZSt4copyIN9__gnu_cxx17__normal_iteratorIPKiSt6vectorIiSaIiEEEEPiET0_T_SA_S9_>:
    5598:	55                   	push   %rbp
    5599:	48 89 e5             	mov    %rsp,%rbp
    559c:	53                   	push   %rbx
    559d:	48 83 ec 28          	sub    $0x28,%rsp
    55a1:	48 89 7d e8          	mov    %rdi,-0x18(%rbp)
    55a5:	48 89 75 e0          	mov    %rsi,-0x20(%rbp)
    55a9:	48 89 55 d8          	mov    %rdx,-0x28(%rbp)
    55ad:	48 8b 45 e0          	mov    -0x20(%rbp),%rax
    55b1:	48 89 c7             	mov    %rax,%rdi
    55b4:	e8 71 02 00 00       	callq  582a <_ZSt12__miter_baseIN9__gnu_cxx17__normal_iteratorIPKiSt6vectorIiSaIiEEEEET_S8_>
    55b9:	48 89 c3             	mov    %rax,%rbx
    55bc:	48 8b 45 e8          	mov    -0x18(%rbp),%rax
    55c0:	48 89 c7             	mov    %rax,%rdi
    55c3:	e8 62 02 00 00       	callq  582a <_ZSt12__miter_baseIN9__gnu_cxx17__normal_iteratorIPKiSt6vectorIiSaIiEEEEET_S8_>
    55c8:	48 89 c1             	mov    %rax,%rcx
    55cb:	48 8b 45 d8          	mov    -0x28(%rbp),%rax
    55cf:	48 89 c2             	mov    %rax,%rdx
    55d2:	48 89 de             	mov    %rbx,%rsi
    55d5:	48 89 cf             	mov    %rcx,%rdi
    55d8:	e8 5b 02 00 00       	callq  5838 <_ZSt14__copy_move_a2ILb0EN9__gnu_cxx17__normal_iteratorIPKiSt6vectorIiSaIiEEEEPiET1_T0_SA_S9_>
    55dd:	48 83 c4 28          	add    $0x28,%rsp
    55e1:	5b                   	pop    %rbx
    55e2:	5d                   	pop    %rbp
    55e3:	c3                   	retq   

00000000000055e4 <_ZNSt16allocator_traitsISaISt4pairImjEEE8max_sizeERKS2_>:
    55e4:	55                   	push   %rbp
    55e5:	48 89 e5             	mov    %rsp,%rbp
    55e8:	48 83 ec 10          	sub    $0x10,%rsp
    55ec:	48 89 7d f8          	mov    %rdi,-0x8(%rbp)
    55f0:	48 8b 45 f8          	mov    -0x8(%rbp),%rax
    55f4:	48 89 c7             	mov    %rax,%rdi
    55f7:	e8 2e 00 00 00       	callq  562a <_ZNK9__gnu_cxx13new_allocatorISt4pairImjEE8max_sizeEv>
    55fc:	c9                   	leaveq 
    55fd:	c3                   	retq   

00000000000055fe <_ZSt3minImERKT_S2_S2_>:
    55fe:	55                   	push   %rbp
    55ff:	48 89 e5             	mov    %rsp,%rbp
    5602:	48 89 7d f8          	mov    %rdi,-0x8(%rbp)
    5606:	48 89 75 f0          	mov    %rsi,-0x10(%rbp)
    560a:	48 8b 45 f0          	mov    -0x10(%rbp),%rax
    560e:	48 8b 10             	mov    (%rax),%rdx
    5611:	48 8b 45 f8          	mov    -0x8(%rbp),%rax
    5615:	48 8b 00             	mov    (%rax),%rax
    5618:	48 39 c2             	cmp    %rax,%rdx
    561b:	73 06                	jae    5623 <_ZSt3minImERKT_S2_S2_+0x25>
    561d:	48 8b 45 f0          	mov    -0x10(%rbp),%rax
    5621:	eb 04                	jmp    5627 <_ZSt3minImERKT_S2_S2_+0x29>
    5623:	48 8b 45 f8          	mov    -0x8(%rbp),%rax
    5627:	5d                   	pop    %rbp
    5628:	c3                   	retq   
    5629:	90                   	nop

000000000000562a <_ZNK9__gnu_cxx13new_allocatorISt4pairImjEE8max_sizeEv>:
    562a:	55                   	push   %rbp
    562b:	48 89 e5             	mov    %rsp,%rbp
    562e:	48 89 7d f8          	mov    %rdi,-0x8(%rbp)
    5632:	48 b8 ff ff ff ff ff 	movabs $0x7ffffffffffffff,%rax
    5639:	ff ff 07 
    563c:	5d                   	pop    %rbp
    563d:	c3                   	retq   

000000000000563e <_ZSt12__niter_baseIPSt4pairImjEET_S3_>:
    563e:	55                   	push   %rbp
    563f:	48 89 e5             	mov    %rsp,%rbp
    5642:	48 89 7d f8          	mov    %rdi,-0x8(%rbp)
    5646:	48 8b 45 f8          	mov    -0x8(%rbp),%rax
    564a:	5d                   	pop    %rbp
    564b:	c3                   	retq   

000000000000564c <_ZSt14__relocate_a_1IPSt4pairImjES2_SaIS1_EET0_T_S5_S4_RT1_>:
    564c:	55                   	push   %rbp
    564d:	48 89 e5             	mov    %rsp,%rbp
    5650:	53                   	push   %rbx
    5651:	48 83 ec 38          	sub    $0x38,%rsp
    5655:	48 89 7d d8          	mov    %rdi,-0x28(%rbp)
    5659:	48 89 75 d0          	mov    %rsi,-0x30(%rbp)
    565d:	48 89 55 c8          	mov    %rdx,-0x38(%rbp)
    5661:	48 89 4d c0          	mov    %rcx,-0x40(%rbp)
    5665:	48 8b 45 c8          	mov    -0x38(%rbp),%rax
    5669:	48 89 45 e8          	mov    %rax,-0x18(%rbp)
    566d:	48 8b 45 d8          	mov    -0x28(%rbp),%rax
    5671:	48 3b 45 d0          	cmp    -0x30(%rbp),%rax
    5675:	74 3c                	je     56b3 <_ZSt14__relocate_a_1IPSt4pairImjES2_SaIS1_EET0_T_S5_S4_RT1_+0x67>
    5677:	48 8b 45 d8          	mov    -0x28(%rbp),%rax
    567b:	48 89 c7             	mov    %rax,%rdi
    567e:	e8 1f 02 00 00       	callq  58a2 <_ZSt11__addressofISt4pairImjEEPT_RS2_>
    5683:	48 89 c3             	mov    %rax,%rbx
    5686:	48 8b 45 e8          	mov    -0x18(%rbp),%rax
    568a:	48 89 c7             	mov    %rax,%rdi
    568d:	e8 10 02 00 00       	callq  58a2 <_ZSt11__addressofISt4pairImjEEPT_RS2_>
    5692:	48 89 c1             	mov    %rax,%rcx
    5695:	48 8b 45 c0          	mov    -0x40(%rbp),%rax
    5699:	48 89 c2             	mov    %rax,%rdx
    569c:	48 89 de             	mov    %rbx,%rsi
    569f:	48 89 cf             	mov    %rcx,%rdi
    56a2:	e8 09 02 00 00       	callq  58b0 <_ZSt19__relocate_object_aISt4pairImjES1_SaIS1_EEvPT_PT0_RT1_>
    56a7:	48 83 45 d8 10       	addq   $0x10,-0x28(%rbp)
    56ac:	48 83 45 e8 10       	addq   $0x10,-0x18(%rbp)
    56b1:	eb ba                	jmp    566d <_ZSt14__relocate_a_1IPSt4pairImjES2_SaIS1_EET0_T_S5_S4_RT1_+0x21>
    56b3:	48 8b 45 e8          	mov    -0x18(%rbp),%rax
    56b7:	48 83 c4 38          	add    $0x38,%rsp
    56bb:	5b                   	pop    %rbx
    56bc:	5d                   	pop    %rbp
    56bd:	c3                   	retq   

00000000000056be <_ZNSt20__uninitialized_copyILb0EE13__uninit_copyISt13move_iteratorIPSt4pairImjEES5_EET0_T_S8_S7_>:
    56be:	55                   	push   %rbp
    56bf:	48 89 e5             	mov    %rsp,%rbp
    56c2:	53                   	push   %rbx
    56c3:	48 83 ec 38          	sub    $0x38,%rsp
    56c7:	48 89 7d d8          	mov    %rdi,-0x28(%rbp)
    56cb:	48 89 75 d0          	mov    %rsi,-0x30(%rbp)
    56cf:	48 89 55 c8          	mov    %rdx,-0x38(%rbp)
    56d3:	48 8b 45 c8          	mov    -0x38(%rbp),%rax
    56d7:	48 89 45 e8          	mov    %rax,-0x18(%rbp)
    56db:	48 8d 55 d0          	lea    -0x30(%rbp),%rdx
    56df:	48 8d 45 d8          	lea    -0x28(%rbp),%rax
    56e3:	48 89 d6             	mov    %rdx,%rsi
    56e6:	48 89 c7             	mov    %rax,%rdi
    56e9:	e8 19 02 00 00       	callq  5907 <_ZStneIPSt4pairImjEEbRKSt13move_iteratorIT_ES7_>
    56ee:	84 c0                	test   %al,%al
    56f0:	74 39                	je     572b <_ZNSt20__uninitialized_copyILb0EE13__uninit_copyISt13move_iteratorIPSt4pairImjEES5_EET0_T_S8_S7_+0x6d>
    56f2:	48 8d 45 d8          	lea    -0x28(%rbp),%rax
    56f6:	48 89 c7             	mov    %rax,%rdi
    56f9:	e8 52 02 00 00       	callq  5950 <_ZNKSt13move_iteratorIPSt4pairImjEEdeEv>
    56fe:	48 89 c3             	mov    %rax,%rbx
    5701:	48 8b 45 e8          	mov    -0x18(%rbp),%rax
    5705:	48 89 c7             	mov    %rax,%rdi
    5708:	e8 95 01 00 00       	callq  58a2 <_ZSt11__addressofISt4pairImjEEPT_RS2_>
    570d:	48 89 de             	mov    %rbx,%rsi
    5710:	48 89 c7             	mov    %rax,%rdi
    5713:	e8 49 02 00 00       	callq  5961 <_ZSt10_ConstructISt4pairImjEJS1_EEvPT_DpOT0_>
    5718:	48 8d 45 d8          	lea    -0x28(%rbp),%rax
    571c:	48 89 c7             	mov    %rax,%rdi
    571f:	e8 0c 02 00 00       	callq  5930 <_ZNSt13move_iteratorIPSt4pairImjEEppEv>
    5724:	48 83 45 e8 10       	addq   $0x10,-0x18(%rbp)
    5729:	eb b0                	jmp    56db <_ZNSt20__uninitialized_copyILb0EE13__uninit_copyISt13move_iteratorIPSt4pairImjEES5_EET0_T_S8_S7_+0x1d>
    572b:	48 8b 45 e8          	mov    -0x18(%rbp),%rax
    572f:	eb 33                	jmp    5764 <_ZNSt20__uninitialized_copyILb0EE13__uninit_copyISt13move_iteratorIPSt4pairImjEES5_EET0_T_S8_S7_+0xa6>
    5731:	48 89 c7             	mov    %rax,%rdi
    5734:	e8 17 c9 ff ff       	callq  2050 <__cxa_begin_catch@plt>
    5739:	48 8b 55 e8          	mov    -0x18(%rbp),%rdx
    573d:	48 8b 45 c8          	mov    -0x38(%rbp),%rax
    5741:	48 89 d6             	mov    %rdx,%rsi
    5744:	48 89 c7             	mov    %rax,%rdi
    5747:	e8 ff ec ff ff       	callq  444b <_ZSt8_DestroyIPSt4pairImjEEvT_S3_>
    574c:	e8 7f ca ff ff       	callq  21d0 <__cxa_rethrow@plt>
    5751:	48 89 c3             	mov    %rax,%rbx
    5754:	e8 b7 ca ff ff       	callq  2210 <__cxa_end_catch@plt>
    5759:	48 89 d8             	mov    %rbx,%rax
    575c:	48 89 c7             	mov    %rax,%rdi
    575f:	e8 cc ca ff ff       	callq  2230 <_Unwind_Resume@plt>
    5764:	48 83 c4 38          	add    $0x38,%rsp
    5768:	5b                   	pop    %rbx
    5769:	5d                   	pop    %rbp
    576a:	c3                   	retq   

000000000000576b <_ZNSt16allocator_traitsISaIiEE8max_sizeERKS0_>:
    576b:	55                   	push   %rbp
    576c:	48 89 e5             	mov    %rsp,%rbp
    576f:	48 83 ec 10          	sub    $0x10,%rsp
    5773:	48 89 7d f8          	mov    %rdi,-0x8(%rbp)
    5777:	48 8b 45 f8          	mov    -0x8(%rbp),%rax
    577b:	48 89 c7             	mov    %rax,%rdi
    577e:	e8 03 00 00 00       	callq  5786 <_ZNK9__gnu_cxx13new_allocatorIiE8max_sizeEv>
    5783:	c9                   	leaveq 
    5784:	c3                   	retq   
    5785:	90                   	nop

0000000000005786 <_ZNK9__gnu_cxx13new_allocatorIiE8max_sizeEv>:
    5786:	55                   	push   %rbp
    5787:	48 89 e5             	mov    %rsp,%rbp
    578a:	48 89 7d f8          	mov    %rdi,-0x8(%rbp)
    578e:	48 b8 ff ff ff ff ff 	movabs $0x1fffffffffffffff,%rax
    5795:	ff ff 1f 
    5798:	5d                   	pop    %rbp
    5799:	c3                   	retq   

000000000000579a <_ZSt14__relocate_a_1IiiENSt9enable_ifIXsrSt24__is_bitwise_relocatableIT_vE5valueEPS2_E4typeES4_S4_S4_RSaIT0_E>:
    579a:	55                   	push   %rbp
    579b:	48 89 e5             	mov    %rsp,%rbp
    579e:	48 83 ec 30          	sub    $0x30,%rsp
    57a2:	48 89 7d e8          	mov    %rdi,-0x18(%rbp)
    57a6:	48 89 75 e0          	mov    %rsi,-0x20(%rbp)
    57aa:	48 89 55 d8          	mov    %rdx,-0x28(%rbp)
    57ae:	48 89 4d d0          	mov    %rcx,-0x30(%rbp)
    57b2:	48 8b 45 e0          	mov    -0x20(%rbp),%rax
    57b6:	48 2b 45 e8          	sub    -0x18(%rbp),%rax
    57ba:	48 c1 f8 02          	sar    $0x2,%rax
    57be:	48 89 45 f8          	mov    %rax,-0x8(%rbp)
    57c2:	48 83 7d f8 00       	cmpq   $0x0,-0x8(%rbp)
    57c7:	7e 1f                	jle    57e8 <_ZSt14__relocate_a_1IiiENSt9enable_ifIXsrSt24__is_bitwise_relocatableIT_vE5valueEPS2_E4typeES4_S4_S4_RSaIT0_E+0x4e>
    57c9:	48 8b 45 f8          	mov    -0x8(%rbp),%rax
    57cd:	48 8d 14 85 00 00 00 	lea    0x0(,%rax,4),%rdx
    57d4:	00 
    57d5:	48 8b 4d e8          	mov    -0x18(%rbp),%rcx
    57d9:	48 8b 45 d8          	mov    -0x28(%rbp),%rax
    57dd:	48 89 ce             	mov    %rcx,%rsi
    57e0:	48 89 c7             	mov    %rax,%rdi
    57e3:	e8 18 ca ff ff       	callq  2200 <memmove@plt>
    57e8:	48 8b 45 f8          	mov    -0x8(%rbp),%rax
    57ec:	48 8d 14 85 00 00 00 	lea    0x0(,%rax,4),%rdx
    57f3:	00 
    57f4:	48 8b 45 d8          	mov    -0x28(%rbp),%rax
    57f8:	48 01 d0             	add    %rdx,%rax
    57fb:	c9                   	leaveq 
    57fc:	c3                   	retq   

00000000000057fd <_ZNSt20__uninitialized_copyILb1EE13__uninit_copyISt13move_iteratorIPiES3_EET0_T_S6_S5_>:
    57fd:	55                   	push   %rbp
    57fe:	48 89 e5             	mov    %rsp,%rbp
    5801:	48 83 ec 20          	sub    $0x20,%rsp
    5805:	48 89 7d f8          	mov    %rdi,-0x8(%rbp)
    5809:	48 89 75 f0          	mov    %rsi,-0x10(%rbp)
    580d:	48 89 55 e8          	mov    %rdx,-0x18(%rbp)
    5811:	48 8b 55 e8          	mov    -0x18(%rbp),%rdx
    5815:	48 8b 4d f0          	mov    -0x10(%rbp),%rcx
    5819:	48 8b 45 f8          	mov    -0x8(%rbp),%rax
    581d:	48 89 ce             	mov    %rcx,%rsi
    5820:	48 89 c7             	mov    %rax,%rdi
    5823:	e8 83 01 00 00       	callq  59ab <_ZSt4copyISt13move_iteratorIPiES1_ET0_T_S4_S3_>
    5828:	c9                   	leaveq 
    5829:	c3                   	retq   

000000000000582a <_ZSt12__miter_baseIN9__gnu_cxx17__normal_iteratorIPKiSt6vectorIiSaIiEEEEET_S8_>:
    582a:	55                   	push   %rbp
    582b:	48 89 e5             	mov    %rsp,%rbp
    582e:	48 89 7d f8          	mov    %rdi,-0x8(%rbp)
    5832:	48 8b 45 f8          	mov    -0x8(%rbp),%rax
    5836:	5d                   	pop    %rbp
    5837:	c3                   	retq   

0000000000005838 <_ZSt14__copy_move_a2ILb0EN9__gnu_cxx17__normal_iteratorIPKiSt6vectorIiSaIiEEEEPiET1_T0_SA_S9_>:
    5838:	55                   	push   %rbp
    5839:	48 89 e5             	mov    %rsp,%rbp
    583c:	41 54                	push   %r12
    583e:	53                   	push   %rbx
    583f:	48 83 ec 20          	sub    $0x20,%rsp
    5843:	48 89 7d e8          	mov    %rdi,-0x18(%rbp)
    5847:	48 89 75 e0          	mov    %rsi,-0x20(%rbp)
    584b:	48 89 55 d8          	mov    %rdx,-0x28(%rbp)
    584f:	48 8b 45 d8          	mov    -0x28(%rbp),%rax
    5853:	48 89 c7             	mov    %rax,%rdi
    5856:	e8 c6 f9 ff ff       	callq  5221 <_ZSt12__niter_baseIPiET_S1_>
    585b:	49 89 c4             	mov    %rax,%r12
    585e:	48 8b 45 e0          	mov    -0x20(%rbp),%rax
    5862:	48 89 c7             	mov    %rax,%rdi
    5865:	e8 8d 01 00 00       	callq  59f7 <_ZSt12__niter_baseIPKiSt6vectorIiSaIiEEET_N9__gnu_cxx17__normal_iteratorIS5_T0_EE>
    586a:	48 89 c3             	mov    %rax,%rbx
    586d:	48 8b 45 e8          	mov    -0x18(%rbp),%rax
    5871:	48 89 c7             	mov    %rax,%rdi
    5874:	e8 7e 01 00 00       	callq  59f7 <_ZSt12__niter_baseIPKiSt6vectorIiSaIiEEET_N9__gnu_cxx17__normal_iteratorIS5_T0_EE>
    5879:	4c 89 e2             	mov    %r12,%rdx
    587c:	48 89 de             	mov    %rbx,%rsi
    587f:	48 89 c7             	mov    %rax,%rdi
    5882:	e8 8d 01 00 00       	callq  5a14 <_ZSt13__copy_move_aILb0EPKiPiET1_T0_S4_S3_>
    5887:	48 89 c2             	mov    %rax,%rdx
    588a:	48 8d 45 d8          	lea    -0x28(%rbp),%rax
    588e:	48 89 d6             	mov    %rdx,%rsi
    5891:	48 89 c7             	mov    %rax,%rdi
    5894:	e8 d9 f9 ff ff       	callq  5272 <_ZSt12__niter_wrapIPiET_RKS1_S1_>
    5899:	48 83 c4 20          	add    $0x20,%rsp
    589d:	5b                   	pop    %rbx
    589e:	41 5c                	pop    %r12
    58a0:	5d                   	pop    %rbp
    58a1:	c3                   	retq   

00000000000058a2 <_ZSt11__addressofISt4pairImjEEPT_RS2_>:
    58a2:	55                   	push   %rbp
    58a3:	48 89 e5             	mov    %rsp,%rbp
    58a6:	48 89 7d f8          	mov    %rdi,-0x8(%rbp)
    58aa:	48 8b 45 f8          	mov    -0x8(%rbp),%rax
    58ae:	5d                   	pop    %rbp
    58af:	c3                   	retq   

00000000000058b0 <_ZSt19__relocate_object_aISt4pairImjES1_SaIS1_EEvPT_PT0_RT1_>:
    58b0:	55                   	push   %rbp
    58b1:	48 89 e5             	mov    %rsp,%rbp
    58b4:	48 83 ec 20          	sub    $0x20,%rsp
    58b8:	48 89 7d f8          	mov    %rdi,-0x8(%rbp)
    58bc:	48 89 75 f0          	mov    %rsi,-0x10(%rbp)
    58c0:	48 89 55 e8          	mov    %rdx,-0x18(%rbp)
    58c4:	48 8b 45 f0          	mov    -0x10(%rbp),%rax
    58c8:	48 89 c7             	mov    %rax,%rdi
    58cb:	e8 75 01 00 00       	callq  5a45 <_ZSt4moveIRSt4pairImjEEONSt16remove_referenceIT_E4typeEOS4_>
    58d0:	48 89 c2             	mov    %rax,%rdx
    58d3:	48 8b 4d f8          	mov    -0x8(%rbp),%rcx
    58d7:	48 8b 45 e8          	mov    -0x18(%rbp),%rax
    58db:	48 89 ce             	mov    %rcx,%rsi
    58de:	48 89 c7             	mov    %rax,%rdi
    58e1:	e8 6d 01 00 00       	callq  5a53 <_ZNSt16allocator_traitsISaISt4pairImjEEE9constructIS1_JS1_EEEvRS2_PT_DpOT0_>
    58e6:	48 8b 45 f0          	mov    -0x10(%rbp),%rax
    58ea:	48 89 c7             	mov    %rax,%rdi
    58ed:	e8 b0 ff ff ff       	callq  58a2 <_ZSt11__addressofISt4pairImjEEPT_RS2_>
    58f2:	48 89 c2             	mov    %rax,%rdx
    58f5:	48 8b 45 e8          	mov    -0x18(%rbp),%rax
    58f9:	48 89 d6             	mov    %rdx,%rsi
    58fc:	48 89 c7             	mov    %rax,%rdi
    58ff:	e8 38 ee ff ff       	callq  473c <_ZNSt16allocator_traitsISaISt4pairImjEEE7destroyIS1_EEvRS2_PT_>
    5904:	90                   	nop
    5905:	c9                   	leaveq 
    5906:	c3                   	retq   

0000000000005907 <_ZStneIPSt4pairImjEEbRKSt13move_iteratorIT_ES7_>:
    5907:	55                   	push   %rbp
    5908:	48 89 e5             	mov    %rsp,%rbp
    590b:	48 83 ec 10          	sub    $0x10,%rsp
    590f:	48 89 7d f8          	mov    %rdi,-0x8(%rbp)
    5913:	48 89 75 f0          	mov    %rsi,-0x10(%rbp)
    5917:	48 8b 55 f0          	mov    -0x10(%rbp),%rdx
    591b:	48 8b 45 f8          	mov    -0x8(%rbp),%rax
    591f:	48 89 d6             	mov    %rdx,%rsi
    5922:	48 89 c7             	mov    %rax,%rdi
    5925:	e8 62 01 00 00       	callq  5a8c <_ZSteqIPSt4pairImjEEbRKSt13move_iteratorIT_ES7_>
    592a:	83 f0 01             	xor    $0x1,%eax
    592d:	c9                   	leaveq 
    592e:	c3                   	retq   
    592f:	90                   	nop

0000000000005930 <_ZNSt13move_iteratorIPSt4pairImjEEppEv>:
    5930:	55                   	push   %rbp
    5931:	48 89 e5             	mov    %rsp,%rbp
    5934:	48 89 7d f8          	mov    %rdi,-0x8(%rbp)
    5938:	48 8b 45 f8          	mov    -0x8(%rbp),%rax
    593c:	48 8b 00             	mov    (%rax),%rax
    593f:	48 8d 50 10          	lea    0x10(%rax),%rdx
    5943:	48 8b 45 f8          	mov    -0x8(%rbp),%rax
    5947:	48 89 10             	mov    %rdx,(%rax)
    594a:	48 8b 45 f8          	mov    -0x8(%rbp),%rax
    594e:	5d                   	pop    %rbp
    594f:	c3                   	retq   

0000000000005950 <_ZNKSt13move_iteratorIPSt4pairImjEEdeEv>:
    5950:	55                   	push   %rbp
    5951:	48 89 e5             	mov    %rsp,%rbp
    5954:	48 89 7d f8          	mov    %rdi,-0x8(%rbp)
    5958:	48 8b 45 f8          	mov    -0x8(%rbp),%rax
    595c:	48 8b 00             	mov    (%rax),%rax
    595f:	5d                   	pop    %rbp
    5960:	c3                   	retq   

0000000000005961 <_ZSt10_ConstructISt4pairImjEJS1_EEvPT_DpOT0_>:
    5961:	55                   	push   %rbp
    5962:	48 89 e5             	mov    %rsp,%rbp
    5965:	53                   	push   %rbx
    5966:	48 83 ec 18          	sub    $0x18,%rsp
    596a:	48 89 7d e8          	mov    %rdi,-0x18(%rbp)
    596e:	48 89 75 e0          	mov    %rsi,-0x20(%rbp)
    5972:	48 8b 45 e0          	mov    -0x20(%rbp),%rax
    5976:	48 89 c7             	mov    %rax,%rdi
    5979:	e8 47 01 00 00       	callq  5ac5 <_ZSt7forwardISt4pairImjEEOT_RNSt16remove_referenceIS2_E4typeE>
    597e:	48 89 c3             	mov    %rax,%rbx
    5981:	48 8b 45 e8          	mov    -0x18(%rbp),%rax
    5985:	48 89 c6             	mov    %rax,%rsi
    5988:	bf 10 00 00 00       	mov    $0x10,%edi
    598d:	e8 43 d7 ff ff       	callq  30d5 <_ZnwmPv>
    5992:	48 89 c1             	mov    %rax,%rcx
    5995:	48 8b 03             	mov    (%rbx),%rax
    5998:	48 8b 53 08          	mov    0x8(%rbx),%rdx
    599c:	48 89 01             	mov    %rax,(%rcx)
    599f:	48 89 51 08          	mov    %rdx,0x8(%rcx)
    59a3:	90                   	nop
    59a4:	48 83 c4 18          	add    $0x18,%rsp
    59a8:	5b                   	pop    %rbx
    59a9:	5d                   	pop    %rbp
    59aa:	c3                   	retq   

00000000000059ab <_ZSt4copyISt13move_iteratorIPiES1_ET0_T_S4_S3_>:
    59ab:	55                   	push   %rbp
    59ac:	48 89 e5             	mov    %rsp,%rbp
    59af:	53                   	push   %rbx
    59b0:	48 83 ec 28          	sub    $0x28,%rsp
    59b4:	48 89 7d e8          	mov    %rdi,-0x18(%rbp)
    59b8:	48 89 75 e0          	mov    %rsi,-0x20(%rbp)
    59bc:	48 89 55 d8          	mov    %rdx,-0x28(%rbp)
    59c0:	48 8b 45 e0          	mov    -0x20(%rbp),%rax
    59c4:	48 89 c7             	mov    %rax,%rdi
    59c7:	e8 07 01 00 00       	callq  5ad3 <_ZSt12__miter_baseIPiEDTcl12__miter_basecldtfp_4baseEEESt13move_iteratorIT_E>
    59cc:	48 89 c3             	mov    %rax,%rbx
    59cf:	48 8b 45 e8          	mov    -0x18(%rbp),%rax
    59d3:	48 89 c7             	mov    %rax,%rdi
    59d6:	e8 f8 00 00 00       	callq  5ad3 <_ZSt12__miter_baseIPiEDTcl12__miter_basecldtfp_4baseEEESt13move_iteratorIT_E>
    59db:	48 89 c1             	mov    %rax,%rcx
    59de:	48 8b 45 d8          	mov    -0x28(%rbp),%rax
    59e2:	48 89 c2             	mov    %rax,%rdx
    59e5:	48 89 de             	mov    %rbx,%rsi
    59e8:	48 89 cf             	mov    %rcx,%rdi
    59eb:	e8 05 01 00 00       	callq  5af5 <_ZSt14__copy_move_a2ILb1EPiS0_ET1_T0_S2_S1_>
    59f0:	48 83 c4 28          	add    $0x28,%rsp
    59f4:	5b                   	pop    %rbx
    59f5:	5d                   	pop    %rbp
    59f6:	c3                   	retq   

00000000000059f7 <_ZSt12__niter_baseIPKiSt6vectorIiSaIiEEET_N9__gnu_cxx17__normal_iteratorIS5_T0_EE>:
    59f7:	55                   	push   %rbp
    59f8:	48 89 e5             	mov    %rsp,%rbp
    59fb:	48 83 ec 10          	sub    $0x10,%rsp
    59ff:	48 89 7d f8          	mov    %rdi,-0x8(%rbp)
    5a03:	48 8d 45 f8          	lea    -0x8(%rbp),%rax
    5a07:	48 89 c7             	mov    %rax,%rdi
    5a0a:	e8 51 01 00 00       	callq  5b60 <_ZNK9__gnu_cxx17__normal_iteratorIPKiSt6vectorIiSaIiEEE4baseEv>
    5a0f:	48 8b 00             	mov    (%rax),%rax
    5a12:	c9                   	leaveq 
    5a13:	c3                   	retq   

0000000000005a14 <_ZSt13__copy_move_aILb0EPKiPiET1_T0_S4_S3_>:
    5a14:	55                   	push   %rbp
    5a15:	48 89 e5             	mov    %rsp,%rbp
    5a18:	48 83 ec 30          	sub    $0x30,%rsp
    5a1c:	48 89 7d e8          	mov    %rdi,-0x18(%rbp)
    5a20:	48 89 75 e0          	mov    %rsi,-0x20(%rbp)
    5a24:	48 89 55 d8          	mov    %rdx,-0x28(%rbp)
    5a28:	c6 45 ff 01          	movb   $0x1,-0x1(%rbp)
    5a2c:	48 8b 55 d8          	mov    -0x28(%rbp),%rdx
    5a30:	48 8b 4d e0          	mov    -0x20(%rbp),%rcx
    5a34:	48 8b 45 e8          	mov    -0x18(%rbp),%rax
    5a38:	48 89 ce             	mov    %rcx,%rsi
    5a3b:	48 89 c7             	mov    %rax,%rdi
    5a3e:	e8 2b 01 00 00       	callq  5b6e <_ZNSt11__copy_moveILb0ELb1ESt26random_access_iterator_tagE8__copy_mIiEEPT_PKS3_S6_S4_>
    5a43:	c9                   	leaveq 
    5a44:	c3                   	retq   

0000000000005a45 <_ZSt4moveIRSt4pairImjEEONSt16remove_referenceIT_E4typeEOS4_>:
    5a45:	55                   	push   %rbp
    5a46:	48 89 e5             	mov    %rsp,%rbp
    5a49:	48 89 7d f8          	mov    %rdi,-0x8(%rbp)
    5a4d:	48 8b 45 f8          	mov    -0x8(%rbp),%rax
    5a51:	5d                   	pop    %rbp
    5a52:	c3                   	retq   

0000000000005a53 <_ZNSt16allocator_traitsISaISt4pairImjEEE9constructIS1_JS1_EEEvRS2_PT_DpOT0_>:
    5a53:	55                   	push   %rbp
    5a54:	48 89 e5             	mov    %rsp,%rbp
    5a57:	48 83 ec 20          	sub    $0x20,%rsp
    5a5b:	48 89 7d f8          	mov    %rdi,-0x8(%rbp)
    5a5f:	48 89 75 f0          	mov    %rsi,-0x10(%rbp)
    5a63:	48 89 55 e8          	mov    %rdx,-0x18(%rbp)
    5a67:	48 8b 45 e8          	mov    -0x18(%rbp),%rax
    5a6b:	48 89 c7             	mov    %rax,%rdi
    5a6e:	e8 52 00 00 00       	callq  5ac5 <_ZSt7forwardISt4pairImjEEOT_RNSt16remove_referenceIS2_E4typeE>
    5a73:	48 89 c2             	mov    %rax,%rdx
    5a76:	48 8b 4d f0          	mov    -0x10(%rbp),%rcx
    5a7a:	48 8b 45 f8          	mov    -0x8(%rbp),%rax
    5a7e:	48 89 ce             	mov    %rcx,%rsi
    5a81:	48 89 c7             	mov    %rax,%rdi
    5a84:	e8 45 01 00 00       	callq  5bce <_ZN9__gnu_cxx13new_allocatorISt4pairImjEE9constructIS2_JS2_EEEvPT_DpOT0_>
    5a89:	90                   	nop
    5a8a:	c9                   	leaveq 
    5a8b:	c3                   	retq   

0000000000005a8c <_ZSteqIPSt4pairImjEEbRKSt13move_iteratorIT_ES7_>:
    5a8c:	55                   	push   %rbp
    5a8d:	48 89 e5             	mov    %rsp,%rbp
    5a90:	53                   	push   %rbx
    5a91:	48 83 ec 18          	sub    $0x18,%rsp
    5a95:	48 89 7d e8          	mov    %rdi,-0x18(%rbp)
    5a99:	48 89 75 e0          	mov    %rsi,-0x20(%rbp)
    5a9d:	48 8b 45 e8          	mov    -0x18(%rbp),%rax
    5aa1:	48 89 c7             	mov    %rax,%rdi
    5aa4:	e8 73 01 00 00       	callq  5c1c <_ZNKSt13move_iteratorIPSt4pairImjEE4baseEv>
    5aa9:	48 89 c3             	mov    %rax,%rbx
    5aac:	48 8b 45 e0          	mov    -0x20(%rbp),%rax
    5ab0:	48 89 c7             	mov    %rax,%rdi
    5ab3:	e8 64 01 00 00       	callq  5c1c <_ZNKSt13move_iteratorIPSt4pairImjEE4baseEv>
    5ab8:	48 39 c3             	cmp    %rax,%rbx
    5abb:	0f 94 c0             	sete   %al
    5abe:	48 83 c4 18          	add    $0x18,%rsp
    5ac2:	5b                   	pop    %rbx
    5ac3:	5d                   	pop    %rbp
    5ac4:	c3                   	retq   

0000000000005ac5 <_ZSt7forwardISt4pairImjEEOT_RNSt16remove_referenceIS2_E4typeE>:
    5ac5:	55                   	push   %rbp
    5ac6:	48 89 e5             	mov    %rsp,%rbp
    5ac9:	48 89 7d f8          	mov    %rdi,-0x8(%rbp)
    5acd:	48 8b 45 f8          	mov    -0x8(%rbp),%rax
    5ad1:	5d                   	pop    %rbp
    5ad2:	c3                   	retq   

0000000000005ad3 <_ZSt12__miter_baseIPiEDTcl12__miter_basecldtfp_4baseEEESt13move_iteratorIT_E>:
    5ad3:	55                   	push   %rbp
    5ad4:	48 89 e5             	mov    %rsp,%rbp
    5ad7:	48 83 ec 10          	sub    $0x10,%rsp
    5adb:	48 89 7d f8          	mov    %rdi,-0x8(%rbp)
    5adf:	48 8d 45 f8          	lea    -0x8(%rbp),%rax
    5ae3:	48 89 c7             	mov    %rax,%rdi
    5ae6:	e8 43 01 00 00       	callq  5c2e <_ZNKSt13move_iteratorIPiE4baseEv>
    5aeb:	48 89 c7             	mov    %rax,%rdi
    5aee:	e8 4c 01 00 00       	callq  5c3f <_ZSt12__miter_baseIPiET_S1_>
    5af3:	c9                   	leaveq 
    5af4:	c3                   	retq   

0000000000005af5 <_ZSt14__copy_move_a2ILb1EPiS0_ET1_T0_S2_S1_>:
    5af5:	55                   	push   %rbp
    5af6:	48 89 e5             	mov    %rsp,%rbp
    5af9:	41 54                	push   %r12
    5afb:	53                   	push   %rbx
    5afc:	48 83 ec 20          	sub    $0x20,%rsp
    5b00:	48 89 7d e8          	mov    %rdi,-0x18(%rbp)
    5b04:	48 89 75 e0          	mov    %rsi,-0x20(%rbp)
    5b08:	48 89 55 d8          	mov    %rdx,-0x28(%rbp)
    5b0c:	48 8b 45 d8          	mov    -0x28(%rbp),%rax
    5b10:	48 89 c7             	mov    %rax,%rdi
    5b13:	e8 09 f7 ff ff       	callq  5221 <_ZSt12__niter_baseIPiET_S1_>
    5b18:	49 89 c4             	mov    %rax,%r12
    5b1b:	48 8b 45 e0          	mov    -0x20(%rbp),%rax
    5b1f:	48 89 c7             	mov    %rax,%rdi
    5b22:	e8 fa f6 ff ff       	callq  5221 <_ZSt12__niter_baseIPiET_S1_>
    5b27:	48 89 c3             	mov    %rax,%rbx
    5b2a:	48 8b 45 e8          	mov    -0x18(%rbp),%rax
    5b2e:	48 89 c7             	mov    %rax,%rdi
    5b31:	e8 eb f6 ff ff       	callq  5221 <_ZSt12__niter_baseIPiET_S1_>
    5b36:	4c 89 e2             	mov    %r12,%rdx
    5b39:	48 89 de             	mov    %rbx,%rsi
    5b3c:	48 89 c7             	mov    %rax,%rdi
    5b3f:	e8 09 01 00 00       	callq  5c4d <_ZSt13__copy_move_aILb1EPiS0_ET1_T0_S2_S1_>
    5b44:	48 89 c2             	mov    %rax,%rdx
    5b47:	48 8d 45 d8          	lea    -0x28(%rbp),%rax
    5b4b:	48 89 d6             	mov    %rdx,%rsi
    5b4e:	48 89 c7             	mov    %rax,%rdi
    5b51:	e8 1c f7 ff ff       	callq  5272 <_ZSt12__niter_wrapIPiET_RKS1_S1_>
    5b56:	48 83 c4 20          	add    $0x20,%rsp
    5b5a:	5b                   	pop    %rbx
    5b5b:	41 5c                	pop    %r12
    5b5d:	5d                   	pop    %rbp
    5b5e:	c3                   	retq   
    5b5f:	90                   	nop

0000000000005b60 <_ZNK9__gnu_cxx17__normal_iteratorIPKiSt6vectorIiSaIiEEE4baseEv>:
    5b60:	55                   	push   %rbp
    5b61:	48 89 e5             	mov    %rsp,%rbp
    5b64:	48 89 7d f8          	mov    %rdi,-0x8(%rbp)
    5b68:	48 8b 45 f8          	mov    -0x8(%rbp),%rax
    5b6c:	5d                   	pop    %rbp
    5b6d:	c3                   	retq   

0000000000005b6e <_ZNSt11__copy_moveILb0ELb1ESt26random_access_iterator_tagE8__copy_mIiEEPT_PKS3_S6_S4_>:
    5b6e:	55                   	push   %rbp
    5b6f:	48 89 e5             	mov    %rsp,%rbp
    5b72:	48 83 ec 30          	sub    $0x30,%rsp
    5b76:	48 89 7d e8          	mov    %rdi,-0x18(%rbp)
    5b7a:	48 89 75 e0          	mov    %rsi,-0x20(%rbp)
    5b7e:	48 89 55 d8          	mov    %rdx,-0x28(%rbp)
    5b82:	48 8b 45 e0          	mov    -0x20(%rbp),%rax
    5b86:	48 2b 45 e8          	sub    -0x18(%rbp),%rax
    5b8a:	48 c1 f8 02          	sar    $0x2,%rax
    5b8e:	48 89 45 f8          	mov    %rax,-0x8(%rbp)
    5b92:	48 83 7d f8 00       	cmpq   $0x0,-0x8(%rbp)
    5b97:	74 1f                	je     5bb8 <_ZNSt11__copy_moveILb0ELb1ESt26random_access_iterator_tagE8__copy_mIiEEPT_PKS3_S6_S4_+0x4a>
    5b99:	48 8b 45 f8          	mov    -0x8(%rbp),%rax
    5b9d:	48 8d 14 85 00 00 00 	lea    0x0(,%rax,4),%rdx
    5ba4:	00 
    5ba5:	48 8b 4d e8          	mov    -0x18(%rbp),%rcx
    5ba9:	48 8b 45 d8          	mov    -0x28(%rbp),%rax
    5bad:	48 89 ce             	mov    %rcx,%rsi
    5bb0:	48 89 c7             	mov    %rax,%rdi
    5bb3:	e8 48 c6 ff ff       	callq  2200 <memmove@plt>
    5bb8:	48 8b 45 f8          	mov    -0x8(%rbp),%rax
    5bbc:	48 8d 14 85 00 00 00 	lea    0x0(,%rax,4),%rdx
    5bc3:	00 
    5bc4:	48 8b 45 d8          	mov    -0x28(%rbp),%rax
    5bc8:	48 01 d0             	add    %rdx,%rax
    5bcb:	c9                   	leaveq 
    5bcc:	c3                   	retq   
    5bcd:	90                   	nop

0000000000005bce <_ZN9__gnu_cxx13new_allocatorISt4pairImjEE9constructIS2_JS2_EEEvPT_DpOT0_>:
    5bce:	55                   	push   %rbp
    5bcf:	48 89 e5             	mov    %rsp,%rbp
    5bd2:	53                   	push   %rbx
    5bd3:	48 83 ec 28          	sub    $0x28,%rsp
    5bd7:	48 89 7d e8          	mov    %rdi,-0x18(%rbp)
    5bdb:	48 89 75 e0          	mov    %rsi,-0x20(%rbp)
    5bdf:	48 89 55 d8          	mov    %rdx,-0x28(%rbp)
    5be3:	48 8b 45 d8          	mov    -0x28(%rbp),%rax
    5be7:	48 89 c7             	mov    %rax,%rdi
    5bea:	e8 d6 fe ff ff       	callq  5ac5 <_ZSt7forwardISt4pairImjEEOT_RNSt16remove_referenceIS2_E4typeE>
    5bef:	48 89 c3             	mov    %rax,%rbx
    5bf2:	48 8b 45 e0          	mov    -0x20(%rbp),%rax
    5bf6:	48 89 c6             	mov    %rax,%rsi
    5bf9:	bf 10 00 00 00       	mov    $0x10,%edi
    5bfe:	e8 d2 d4 ff ff       	callq  30d5 <_ZnwmPv>
    5c03:	48 89 c1             	mov    %rax,%rcx
    5c06:	48 8b 03             	mov    (%rbx),%rax
    5c09:	48 8b 53 08          	mov    0x8(%rbx),%rdx
    5c0d:	48 89 01             	mov    %rax,(%rcx)
    5c10:	48 89 51 08          	mov    %rdx,0x8(%rcx)
    5c14:	90                   	nop
    5c15:	48 83 c4 28          	add    $0x28,%rsp
    5c19:	5b                   	pop    %rbx
    5c1a:	5d                   	pop    %rbp
    5c1b:	c3                   	retq   

0000000000005c1c <_ZNKSt13move_iteratorIPSt4pairImjEE4baseEv>:
    5c1c:	55                   	push   %rbp
    5c1d:	48 89 e5             	mov    %rsp,%rbp
    5c20:	48 89 7d f8          	mov    %rdi,-0x8(%rbp)
    5c24:	48 8b 45 f8          	mov    -0x8(%rbp),%rax
    5c28:	48 8b 00             	mov    (%rax),%rax
    5c2b:	5d                   	pop    %rbp
    5c2c:	c3                   	retq   
    5c2d:	90                   	nop

0000000000005c2e <_ZNKSt13move_iteratorIPiE4baseEv>:
    5c2e:	55                   	push   %rbp
    5c2f:	48 89 e5             	mov    %rsp,%rbp
    5c32:	48 89 7d f8          	mov    %rdi,-0x8(%rbp)
    5c36:	48 8b 45 f8          	mov    -0x8(%rbp),%rax
    5c3a:	48 8b 00             	mov    (%rax),%rax
    5c3d:	5d                   	pop    %rbp
    5c3e:	c3                   	retq   

0000000000005c3f <_ZSt12__miter_baseIPiET_S1_>:
    5c3f:	55                   	push   %rbp
    5c40:	48 89 e5             	mov    %rsp,%rbp
    5c43:	48 89 7d f8          	mov    %rdi,-0x8(%rbp)
    5c47:	48 8b 45 f8          	mov    -0x8(%rbp),%rax
    5c4b:	5d                   	pop    %rbp
    5c4c:	c3                   	retq   

0000000000005c4d <_ZSt13__copy_move_aILb1EPiS0_ET1_T0_S2_S1_>:
    5c4d:	55                   	push   %rbp
    5c4e:	48 89 e5             	mov    %rsp,%rbp
    5c51:	48 83 ec 30          	sub    $0x30,%rsp
    5c55:	48 89 7d e8          	mov    %rdi,-0x18(%rbp)
    5c59:	48 89 75 e0          	mov    %rsi,-0x20(%rbp)
    5c5d:	48 89 55 d8          	mov    %rdx,-0x28(%rbp)
    5c61:	c6 45 ff 01          	movb   $0x1,-0x1(%rbp)
    5c65:	48 8b 55 d8          	mov    -0x28(%rbp),%rdx
    5c69:	48 8b 4d e0          	mov    -0x20(%rbp),%rcx
    5c6d:	48 8b 45 e8          	mov    -0x18(%rbp),%rax
    5c71:	48 89 ce             	mov    %rcx,%rsi
    5c74:	48 89 c7             	mov    %rax,%rdi
    5c77:	e8 02 00 00 00       	callq  5c7e <_ZNSt11__copy_moveILb1ELb1ESt26random_access_iterator_tagE8__copy_mIiEEPT_PKS3_S6_S4_>
    5c7c:	c9                   	leaveq 
    5c7d:	c3                   	retq   

0000000000005c7e <_ZNSt11__copy_moveILb1ELb1ESt26random_access_iterator_tagE8__copy_mIiEEPT_PKS3_S6_S4_>:
    5c7e:	55                   	push   %rbp
    5c7f:	48 89 e5             	mov    %rsp,%rbp
    5c82:	48 83 ec 30          	sub    $0x30,%rsp
    5c86:	48 89 7d e8          	mov    %rdi,-0x18(%rbp)
    5c8a:	48 89 75 e0          	mov    %rsi,-0x20(%rbp)
    5c8e:	48 89 55 d8          	mov    %rdx,-0x28(%rbp)
    5c92:	48 8b 45 e0          	mov    -0x20(%rbp),%rax
    5c96:	48 2b 45 e8          	sub    -0x18(%rbp),%rax
    5c9a:	48 c1 f8 02          	sar    $0x2,%rax
    5c9e:	48 89 45 f8          	mov    %rax,-0x8(%rbp)
    5ca2:	48 83 7d f8 00       	cmpq   $0x0,-0x8(%rbp)
    5ca7:	74 1f                	je     5cc8 <_ZNSt11__copy_moveILb1ELb1ESt26random_access_iterator_tagE8__copy_mIiEEPT_PKS3_S6_S4_+0x4a>
    5ca9:	48 8b 45 f8          	mov    -0x8(%rbp),%rax
    5cad:	48 8d 14 85 00 00 00 	lea    0x0(,%rax,4),%rdx
    5cb4:	00 
    5cb5:	48 8b 4d e8          	mov    -0x18(%rbp),%rcx
    5cb9:	48 8b 45 d8          	mov    -0x28(%rbp),%rax
    5cbd:	48 89 ce             	mov    %rcx,%rsi
    5cc0:	48 89 c7             	mov    %rax,%rdi
    5cc3:	e8 38 c5 ff ff       	callq  2200 <memmove@plt>
    5cc8:	48 8b 45 f8          	mov    -0x8(%rbp),%rax
    5ccc:	48 8d 14 85 00 00 00 	lea    0x0(,%rax,4),%rdx
    5cd3:	00 
    5cd4:	48 8b 45 d8          	mov    -0x28(%rbp),%rax
    5cd8:	48 01 d0             	add    %rdx,%rax
    5cdb:	c9                   	leaveq 
    5cdc:	c3                   	retq   
    5cdd:	0f 1f 00             	nopl   (%rax)

0000000000005ce0 <__libc_csu_init>:
    5ce0:	f3 0f 1e fa          	endbr64 
    5ce4:	41 57                	push   %r15
    5ce6:	4c 8d 3d bb 40 00 00 	lea    0x40bb(%rip),%r15        # 9da8 <__frame_dummy_init_array_entry>
    5ced:	41 56                	push   %r14
    5cef:	49 89 d6             	mov    %rdx,%r14
    5cf2:	41 55                	push   %r13
    5cf4:	49 89 f5             	mov    %rsi,%r13
    5cf7:	41 54                	push   %r12
    5cf9:	41 89 fc             	mov    %edi,%r12d
    5cfc:	55                   	push   %rbp
    5cfd:	48 8d 2d b4 40 00 00 	lea    0x40b4(%rip),%rbp        # 9db8 <__init_array_end>
    5d04:	53                   	push   %rbx
    5d05:	4c 29 fd             	sub    %r15,%rbp
    5d08:	48 83 ec 08          	sub    $0x8,%rsp
    5d0c:	e8 ef c2 ff ff       	callq  2000 <_init>
    5d11:	48 c1 fd 03          	sar    $0x3,%rbp
    5d15:	74 1f                	je     5d36 <__libc_csu_init+0x56>
    5d17:	31 db                	xor    %ebx,%ebx
    5d19:	0f 1f 80 00 00 00 00 	nopl   0x0(%rax)
    5d20:	4c 89 f2             	mov    %r14,%rdx
    5d23:	4c 89 ee             	mov    %r13,%rsi
    5d26:	44 89 e7             	mov    %r12d,%edi
    5d29:	41 ff 14 df          	callq  *(%r15,%rbx,8)
    5d2d:	48 83 c3 01          	add    $0x1,%rbx
    5d31:	48 39 dd             	cmp    %rbx,%rbp
    5d34:	75 ea                	jne    5d20 <__libc_csu_init+0x40>
    5d36:	48 83 c4 08          	add    $0x8,%rsp
    5d3a:	5b                   	pop    %rbx
    5d3b:	5d                   	pop    %rbp
    5d3c:	41 5c                	pop    %r12
    5d3e:	41 5d                	pop    %r13
    5d40:	41 5e                	pop    %r14
    5d42:	41 5f                	pop    %r15
    5d44:	c3                   	retq   
    5d45:	66 66 2e 0f 1f 84 00 	data16 nopw %cs:0x0(%rax,%rax,1)
    5d4c:	00 00 00 00 

0000000000005d50 <__libc_csu_fini>:
    5d50:	f3 0f 1e fa          	endbr64 
    5d54:	c3                   	retq   

Disassembly of section .fini:

0000000000005d58 <_fini>:
    5d58:	f3 0f 1e fa          	endbr64 
    5d5c:	48 83 ec 08          	sub    $0x8,%rsp
    5d60:	48 83 c4 08          	add    $0x8,%rsp
    5d64:	c3                   	retq   
